---
triple:          'arm64-apple-darwin'
binary-path:     '/Users/merleth/Documents/CS 235/cs235-assignments/Unit03-Sorting/homework3c-insertion-sort/sort'
relocations:
  - { offsetInCU: 0xC6A8, offset: 0xC6A8, size: 0x8, addend: 0x0, symName: __ZNSt3__124__put_character_sequenceB7v160006IcNS_11char_traitsIcEEEERNS_13basic_ostreamIT_T0_EES7_PKS4_m, symObjAddr: 0x38E8, symBinAddr: 0x1000069E4, symSize: 0x1EC }
  - { offsetInCU: 0xECB9, offset: 0xECB9, size: 0x8, addend: 0x0, symName: __ZNSt3__17getlineB7v160006IcNS_11char_traitsIcEENS_9allocatorIcEEEERNS_13basic_istreamIT_T0_EES9_RNS_12basic_stringIS6_S7_T1_EE, symObjAddr: 0xD0, symBinAddr: 0x1000031CC, symSize: 0x5C }
  - { offsetInCU: 0xED11, offset: 0xED11, size: 0x8, addend: 0x0, symName: __ZNSt3__1lsB7v160006INS_11char_traitsIcEEEERNS_13basic_ostreamIcT_EES6_PKc, symObjAddr: 0x73C, symBinAddr: 0x100003838, symSize: 0x48 }
  - { offsetInCU: 0xED57, offset: 0xED57, size: 0x8, addend: 0x0, symName: __ZNSt3__14endlB7v160006IcNS_11char_traitsIcEEEERNS_13basic_ostreamIT_T0_EES7_, symObjAddr: 0x7B0, symBinAddr: 0x1000038AC, symSize: 0x58 }
  - { offsetInCU: 0xED97, offset: 0xED97, size: 0x8, addend: 0x0, symName: __ZNSt3__1gtB7v160006IcNS_11char_traitsIcEENS_9allocatorIcEEEEbRKNS_12basic_stringIT_T0_T1_EESB_, symObjAddr: 0x930, symBinAddr: 0x100003A2C, symSize: 0x30 }
  - { offsetInCU: 0xEDEF, offset: 0xEDEF, size: 0x8, addend: 0x0, symName: __ZNSt3__1neB7v160006IPNS_12basic_stringIcNS_11char_traitsIcEENS_9allocatorIcEEEEEEbRKNS_11__wrap_iterIT_EESC_, symObjAddr: 0x9C0, symBinAddr: 0x100003ABC, symSize: 0x34 }
  - { offsetInCU: 0xEE32, offset: 0xEE32, size: 0x8, addend: 0x0, symName: __ZNSt3__1lsB7v160006IcNS_11char_traitsIcEENS_9allocatorIcEEEERNS_13basic_ostreamIT_T0_EES9_RKNS_12basic_stringIS6_S7_T1_EE, symObjAddr: 0xA0C, symBinAddr: 0x100003B08, symSize: 0x4C }
  - { offsetInCU: 0xEE8A, offset: 0xEE8A, size: 0x8, addend: 0x0, symName: __ZNSt3__1eqB7v160006IPNS_12basic_stringIcNS_11char_traitsIcEENS_9allocatorIcEEEEEEbRKNS_11__wrap_iterIT_EESC_, symObjAddr: 0xB30, symBinAddr: 0x100003C2C, symSize: 0x48 }
  - { offsetInCU: 0xEECD, offset: 0xEECD, size: 0x8, addend: 0x0, symName: __ZNSt3__119__debug_db_insert_cB7v160006INS_12basic_stringIcNS_11char_traitsIcEENS_9allocatorIcEEEEEEvPT_, symObjAddr: 0xC2C, symBinAddr: 0x100003D28, symSize: 0x10 }
  - { offsetInCU: 0xEEFE, offset: 0xEEFE, size: 0x8, addend: 0x0, symName: __ZNSt3__17getlineB7v160006IcNS_11char_traitsIcEENS_9allocatorIcEEEERNS_13basic_istreamIT_T0_EES9_RNS_12basic_stringIS6_S7_T1_EES6_, symObjAddr: 0xD70, symBinAddr: 0x100003E6C, symSize: 0x238 }
  - { offsetInCU: 0xEFBC, offset: 0xEFBC, size: 0x8, addend: 0x0, symName: __ZNSt3__125__debug_db_invalidate_allB7v160006INS_12basic_stringIcNS_11char_traitsIcEENS_9allocatorIcEEEEEEvPT_, symObjAddr: 0x1390, symBinAddr: 0x10000448C, symSize: 0x10 }
  - { offsetInCU: 0xF20C, offset: 0xF20C, size: 0x8, addend: 0x0, symName: __ZNSt3__19use_facetB7v160006INS_5ctypeIcEEEERKT_RKNS_6localeE, symObjAddr: 0x16CC, symBinAddr: 0x1000047C8, symSize: 0x2C }
  - { offsetInCU: 0xF6DB, offset: 0xF6DB, size: 0x8, addend: 0x0, symName: __ZNSt3__112__to_addressB7v160006INS_12basic_stringIcNS_11char_traitsIcEENS_9allocatorIcEEEEEEPT_S8_, symObjAddr: 0x19E0, symBinAddr: 0x100004ADC, symSize: 0x14 }
  - { offsetInCU: 0xF710, offset: 0xF710, size: 0x8, addend: 0x0, symName: __ZNSt3__13maxB7v160006ImEERKT_S3_S3_, symObjAddr: 0x1DEC, symBinAddr: 0x100004EE8, symSize: 0x2C }
  - { offsetInCU: 0xF753, offset: 0xF753, size: 0x8, addend: 0x0, symName: __ZNSt3__13minB7v160006ImEERKT_S3_S3_, symObjAddr: 0x1E18, symBinAddr: 0x100004F14, symSize: 0x2C }
  - { offsetInCU: 0xF980, offset: 0xF980, size: 0x8, addend: 0x0, symName: __ZNSt3__13minB7v160006ImNS_6__lessImmEEEERKT_S5_S5_T0_, symObjAddr: 0x1EA4, symBinAddr: 0x100004FA0, symSize: 0x54 }
  - { offsetInCU: 0xFA15, offset: 0xFA15, size: 0x8, addend: 0x0, symName: __ZNSt3__120__throw_length_errorB7v160006EPKc, symObjAddr: 0x1F84, symBinAddr: 0x100005080, symSize: 0x64 }
  - { offsetInCU: 0xFA3D, offset: 0xFA3D, size: 0x8, addend: 0x0, symName: __ZNSt3__13maxB7v160006ImNS_6__lessImmEEEERKT_S5_S5_T0_, symObjAddr: 0x20C8, symBinAddr: 0x1000051C4, symSize: 0x54 }
  - { offsetInCU: 0xFA97, offset: 0xFA97, size: 0x8, addend: 0x0, symName: __ZNSt3__119__allocate_at_leastB7v160006INS_9allocatorINS_12basic_stringIcNS_11char_traitsIcEENS1_IcEEEEEEEENS_19__allocation_resultINS_16allocator_traitsIT_E7pointerEEERSA_m, symObjAddr: 0x2238, symBinAddr: 0x100005334, symSize: 0x40 }
  - { offsetInCU: 0xFADA, offset: 0xFADA, size: 0x8, addend: 0x0, symName: __ZNSt3__117__libcpp_allocateB7v160006Emm, symObjAddr: 0x23DC, symBinAddr: 0x1000054D8, symSize: 0x60 }
  - { offsetInCU: 0xFB34, offset: 0xFB34, size: 0x8, addend: 0x0, symName: __ZNSt3__124__is_overaligned_for_newB7v160006Em, symObjAddr: 0x243C, symBinAddr: 0x100005538, symSize: 0x20 }
  - { offsetInCU: 0xFB62, offset: 0xFB62, size: 0x8, addend: 0x0, symName: __ZNSt3__121__libcpp_operator_newB7v160006IJmSt11align_val_tEEEPvDpT_, symObjAddr: 0x245C, symBinAddr: 0x100005558, symSize: 0x2C }
  - { offsetInCU: 0xFBAF, offset: 0xFBAF, size: 0x8, addend: 0x0, symName: __ZNSt3__121__libcpp_operator_newB7v160006IJmEEEPvDpT_, symObjAddr: 0x2488, symBinAddr: 0x100005584, symSize: 0x24 }
  - { offsetInCU: 0xFBE8, offset: 0xFBE8, size: 0x8, addend: 0x0, symName: __ZNSt3__142__uninitialized_allocator_move_if_noexceptB7v160006INS_9allocatorINS_12basic_stringIcNS_11char_traitsIcEENS1_IcEEEEEENS_16reverse_iteratorIPS6_EESA_SA_EET2_RT_T0_T1_SB_, symObjAddr: 0x25E4, symBinAddr: 0x1000056E0, symSize: 0x12C }
  - { offsetInCU: 0xFC88, offset: 0xFC88, size: 0x8, addend: 0x0, symName: __ZNSt3__14swapB7v160006IPNS_12basic_stringIcNS_11char_traitsIcEENS_9allocatorIcEEEEEENS_9enable_ifIXaasr21is_move_constructibleIT_EE5valuesr18is_move_assignableIS9_EE5valueEvE4typeERS9_SC_, symObjAddr: 0x275C, symBinAddr: 0x100005858, symSize: 0x3C }
  - { offsetInCU: 0xFCD9, offset: 0xFCD9, size: 0x8, addend: 0x0, symName: __ZNSt3__125__debug_db_invalidate_allB7v160006INS_6vectorINS_12basic_stringIcNS_11char_traitsIcEENS_9allocatorIcEEEENS5_IS7_EEEEEEvPT_, symObjAddr: 0x2860, symBinAddr: 0x10000595C, symSize: 0x10 }
  - { offsetInCU: 0xFD0A, offset: 0xFD0A, size: 0x8, addend: 0x0, symName: __ZNSt3__122__make_exception_guardB7v160006INS_29_AllocatorDestroyRangeReverseINS_9allocatorINS_12basic_stringIcNS_11char_traitsIcEENS2_IcEEEEEENS_16reverse_iteratorIPS7_EEEEEENS_28__exception_guard_exceptionsIT_EESE_, symObjAddr: 0x28B8, symBinAddr: 0x1000059B4, symSize: 0x4C }
  - { offsetInCU: 0xFD40, offset: 0xFD40, size: 0x8, addend: 0x0, symName: __ZNSt3__1neB7v160006IPNS_12basic_stringIcNS_11char_traitsIcEENS_9allocatorIcEEEES7_EEbRKNS_16reverse_iteratorIT_EERKNS8_IT0_EE, symObjAddr: 0x2948, symBinAddr: 0x100005A44, symSize: 0x48 }
  - { offsetInCU: 0xFD8C, offset: 0xFD8C, size: 0x8, addend: 0x0, symName: __ZNSt3__112__to_addressB7v160006INS_16reverse_iteratorIPNS_12basic_stringIcNS_11char_traitsIcEENS_9allocatorIcEEEEEEvEENS_5decayIDTclsr19__to_address_helperIT_EE6__callclsr3stdE7declvalIRKSB_EEEEE4typeESD_, symObjAddr: 0x29C4, symBinAddr: 0x100005AC0, symSize: 0x24 }
  - { offsetInCU: 0xFDC2, offset: 0xFDC2, size: 0x8, addend: 0x0, symName: __ZNSt3__115__debug_db_swapB7v160006INS_12basic_stringIcNS_11char_traitsIcEENS_9allocatorIcEEEEEEvPT_S8_, symObjAddr: 0x2BF8, symBinAddr: 0x100005CF4, symSize: 0x14 }
  - { offsetInCU: 0xFE2A, offset: 0xFE2A, size: 0x8, addend: 0x0, symName: __ZNSt3__119__allocator_destroyB7v160006INS_9allocatorINS_12basic_stringIcNS_11char_traitsIcEENS1_IcEEEEEENS_16reverse_iteratorINS8_IPS6_EEEESB_EEvRT_T0_T1_, symObjAddr: 0x2D6C, symBinAddr: 0x100005E68, symSize: 0x70 }
  - { offsetInCU: 0xFE8F, offset: 0xFE8F, size: 0x8, addend: 0x0, symName: __ZNSt3__1neB7v160006INS_16reverse_iteratorIPNS_12basic_stringIcNS_11char_traitsIcEENS_9allocatorIcEEEEEES9_EEbRKNS1_IT_EERKNS1_IT0_EE, symObjAddr: 0x2E18, symBinAddr: 0x100005F14, symSize: 0x60 }
  - { offsetInCU: 0xFEDB, offset: 0xFEDB, size: 0x8, addend: 0x0, symName: __ZNSt3__112__to_addressB7v160006INS_16reverse_iteratorINS1_IPNS_12basic_stringIcNS_11char_traitsIcEENS_9allocatorIcEEEEEEEEvEENS_5decayIDTclsr19__to_address_helperIT_EE6__callclsr3stdE7declvalIRKSC_EEEEE4typeESE_, symObjAddr: 0x2EA4, symBinAddr: 0x100005FA0, symSize: 0x24 }
  - { offsetInCU: 0xFF3A, offset: 0xFF3A, size: 0x8, addend: 0x0, symName: __ZNSt3__119__libcpp_deallocateB7v160006EPvmm, symObjAddr: 0x3260, symBinAddr: 0x10000635C, symSize: 0x60 }
  - { offsetInCU: 0xFF9F, offset: 0xFF9F, size: 0x8, addend: 0x0, symName: __ZNSt3__127__do_deallocate_handle_sizeB7v160006IJSt11align_val_tEEEvPvmDpT_, symObjAddr: 0x32C0, symBinAddr: 0x1000063BC, symSize: 0x30 }
  - { offsetInCU: 0xFFF2, offset: 0xFFF2, size: 0x8, addend: 0x0, symName: __ZNSt3__127__do_deallocate_handle_sizeB7v160006IJEEEvPvmDpT_, symObjAddr: 0x32F0, symBinAddr: 0x1000063EC, symSize: 0x28 }
  - { offsetInCU: 0x10030, offset: 0x10030, size: 0x8, addend: 0x0, symName: __ZNSt3__124__libcpp_operator_deleteB7v160006IJPvSt11align_val_tEEEvDpT_, symObjAddr: 0x3318, symBinAddr: 0x100006414, symSize: 0x2C }
  - { offsetInCU: 0x10079, offset: 0x10079, size: 0x8, addend: 0x0, symName: __ZNSt3__124__libcpp_operator_deleteB7v160006IJPvEEEvDpT_, symObjAddr: 0x3344, symBinAddr: 0x100006440, symSize: 0x24 }
  - { offsetInCU: 0x100AE, offset: 0x100AE, size: 0x8, addend: 0x0, symName: __ZNSt3__119__debug_db_insert_cB7v160006INS_6vectorINS_12basic_stringIcNS_11char_traitsIcEENS_9allocatorIcEEEENS5_IS7_EEEEEEvPT_, symObjAddr: 0x3448, symBinAddr: 0x100006544, symSize: 0x10 }
  - { offsetInCU: 0x100DF, offset: 0x100DF, size: 0x8, addend: 0x0, symName: __ZNSt3__118__debug_db_erase_cB7v160006INS_6vectorINS_12basic_stringIcNS_11char_traitsIcEENS_9allocatorIcEEEENS5_IS7_EEEEEEvPT_, symObjAddr: 0x3638, symBinAddr: 0x100006734, symSize: 0x10 }
  - { offsetInCU: 0x10110, offset: 0x10110, size: 0x8, addend: 0x0, symName: __ZNSt3__118__constexpr_strlenB7v160006EPKc, symObjAddr: 0x3790, symBinAddr: 0x10000688C, symSize: 0x24 }
  - { offsetInCU: 0x1013C, offset: 0x1013C, size: 0x8, addend: 0x0, symName: __ZNSt3__116__pad_and_outputB7v160006IcNS_11char_traitsIcEEEENS_19ostreambuf_iteratorIT_T0_EES6_PKS4_S8_S8_RNS_8ios_baseES4_, symObjAddr: 0x3AF0, symBinAddr: 0x100006BEC, symSize: 0x240 }
  - { offsetInCU: 0x1020B, offset: 0x1020B, size: 0x8, addend: 0x0, symName: __ZNSt3__112__to_addressB7v160006IcEEPT_S2_, symObjAddr: 0x3F3C, symBinAddr: 0x100007038, symSize: 0x14 }
  - { offsetInCU: 0x10240, offset: 0x10240, size: 0x8, addend: 0x0, symName: __ZNSt3__120__throw_out_of_rangeB7v160006EPKc, symObjAddr: 0x4014, symBinAddr: 0x100007110, symSize: 0x64 }
  - { offsetInCU: 0x1026A, offset: 0x1026A, size: 0x8, addend: 0x0, symName: __ZNSt3__1ltB7v160006IcNS_11char_traitsIcEENS_9allocatorIcEEEEbRKNS_12basic_stringIT_T0_T1_EESB_, symObjAddr: 0x40F8, symBinAddr: 0x1000071F4, symSize: 0x38 }
  - { offsetInCU: 0x102E6, offset: 0x102E6, size: 0x8, addend: 0x0, symName: __ZNSt3__118__constexpr_memcmpB7v160006IcEEiPKT_S3_m, symObjAddr: 0x43BC, symBinAddr: 0x1000074B8, symSize: 0x34 }
  - { offsetInCU: 0x10337, offset: 0x10337, size: 0x8, addend: 0x0, symName: __ZNSt3__112__to_addressB7v160006IKcEEPT_S3_, symObjAddr: 0x43F0, symBinAddr: 0x1000074EC, symSize: 0x14 }
  - { offsetInCU: 0x10829, offset: 0x10829, size: 0x8, addend: 0x0, symName: __ZSt28__throw_bad_array_new_lengthB7v160006v, symObjAddr: 0x23A8, symBinAddr: 0x1000054A4, symSize: 0x34 }
  - { offsetInCU: 0x111A5, offset: 0x111A5, size: 0x8, addend: 0x0, symName: __ZNSt3__16vectorINS_12basic_stringIcNS_11char_traitsIcEENS_9allocatorIcEEEENS4_IS6_EEE26__swap_out_circular_bufferERNS_14__split_bufferIS6_RS7_EE, symObjAddr: 0x1BEC, symBinAddr: 0x100004CE8, symSize: 0x118 }
  - { offsetInCU: 0x13612, offset: 0x13612, size: 0x8, addend: 0x0, symName: __Z9readLinesRNSt3__16vectorINS_12basic_stringIcNS_11char_traitsIcEENS_9allocatorIcEEEENS4_IS6_EEEERNS_13basic_istreamIcS3_EE, symObjAddr: 0x0, symBinAddr: 0x1000030FC, symSize: 0xA4 }
  - { offsetInCU: 0x13657, offset: 0x13657, size: 0x8, addend: 0x0, symName: __ZNSt3__112basic_stringIcNS_11char_traitsIcEENS_9allocatorIcEEEC1B7v160006Ev, symObjAddr: 0xA4, symBinAddr: 0x1000031A0, symSize: 0x2C }
  - { offsetInCU: 0x13681, offset: 0x13681, size: 0x8, addend: 0x0, symName: __ZNKSt3__19basic_iosIcNS_11char_traitsIcEEEcvbB7v160006Ev, symObjAddr: 0x12C, symBinAddr: 0x100003228, symSize: 0x2C }
  - { offsetInCU: 0x136A7, offset: 0x136A7, size: 0x8, addend: 0x0, symName: __ZNSt3__16vectorINS_12basic_stringIcNS_11char_traitsIcEENS_9allocatorIcEEEENS4_IS6_EEE9push_backB7v160006ERKS6_, symObjAddr: 0x158, symBinAddr: 0x100003254, symSize: 0x6C }
  - { offsetInCU: 0x136DE, offset: 0x136DE, size: 0x8, addend: 0x0, symName: _main, symObjAddr: 0x1C4, symBinAddr: 0x1000032C0, symSize: 0x404 }
  - { offsetInCU: 0x137D8, offset: 0x137D8, size: 0x8, addend: 0x0, symName: __ZNSt3__16vectorINS_12basic_stringIcNS_11char_traitsIcEENS_9allocatorIcEEEENS4_IS6_EEEC1B7v160006Ev, symObjAddr: 0x5C8, symBinAddr: 0x1000036C4, symSize: 0x2C }
  - { offsetInCU: 0x13807, offset: 0x13807, size: 0x8, addend: 0x0, symName: __ZNSt3__112basic_stringIcNS_11char_traitsIcEENS_9allocatorIcEEEC1B7v160006IDnEEPKc, symObjAddr: 0x5F4, symBinAddr: 0x1000036F0, symSize: 0x34 }
  - { offsetInCU: 0x13845, offset: 0x13845, size: 0x8, addend: 0x0, symName: __ZNSt3__114basic_ifstreamIcNS_11char_traitsIcEEEC1Ev, symObjAddr: 0x628, symBinAddr: 0x100003724, symSize: 0xE8 }
  - { offsetInCU: 0x13871, offset: 0x13871, size: 0x8, addend: 0x0, symName: __ZNKSt3__114basic_ifstreamIcNS_11char_traitsIcEEE7is_openEv, symObjAddr: 0x710, symBinAddr: 0x10000380C, symSize: 0x2C }
  - { offsetInCU: 0x13899, offset: 0x13899, size: 0x8, addend: 0x0, symName: __ZNSt3__113basic_ostreamIcNS_11char_traitsIcEEElsB7v160006EPFRS3_S4_E, symObjAddr: 0x784, symBinAddr: 0x100003880, symSize: 0x2C }
  - { offsetInCU: 0x138CD, offset: 0x138CD, size: 0x8, addend: 0x0, symName: __ZNSt3__114basic_ifstreamIcNS_11char_traitsIcEEE5closeEv, symObjAddr: 0x808, symBinAddr: 0x100003904, symSize: 0x58 }
  - { offsetInCU: 0x138FA, offset: 0x138FA, size: 0x8, addend: 0x0, symName: __ZNSt3__114basic_ifstreamIcNS_11char_traitsIcEEED1Ev, symObjAddr: 0x860, symBinAddr: 0x10000395C, symSize: 0x40 }
  - { offsetInCU: 0x13927, offset: 0x13927, size: 0x8, addend: 0x0, symName: __ZNKSt3__16vectorINS_12basic_stringIcNS_11char_traitsIcEENS_9allocatorIcEEEENS4_IS6_EEE4sizeB7v160006Ev, symObjAddr: 0x8A0, symBinAddr: 0x10000399C, symSize: 0x28 }
  - { offsetInCU: 0x1394D, offset: 0x1394D, size: 0x8, addend: 0x0, symName: __ZNSt3__16vectorINS_12basic_stringIcNS_11char_traitsIcEENS_9allocatorIcEEEENS4_IS6_EEE2atEm, symObjAddr: 0x8C8, symBinAddr: 0x1000039C4, symSize: 0x68 }
  - { offsetInCU: 0x13984, offset: 0x13984, size: 0x8, addend: 0x0, symName: __ZNSt3__16vectorINS_12basic_stringIcNS_11char_traitsIcEENS_9allocatorIcEEEENS4_IS6_EEE5beginB7v160006Ev, symObjAddr: 0x960, symBinAddr: 0x100003A5C, symSize: 0x30 }
  - { offsetInCU: 0x139AC, offset: 0x139AC, size: 0x8, addend: 0x0, symName: __ZNSt3__16vectorINS_12basic_stringIcNS_11char_traitsIcEENS_9allocatorIcEEEENS4_IS6_EEE3endB7v160006Ev, symObjAddr: 0x990, symBinAddr: 0x100003A8C, symSize: 0x30 }
  - { offsetInCU: 0x139D4, offset: 0x139D4, size: 0x8, addend: 0x0, symName: __ZNKSt3__111__wrap_iterIPNS_12basic_stringIcNS_11char_traitsIcEENS_9allocatorIcEEEEEdeB7v160006Ev, symObjAddr: 0x9F4, symBinAddr: 0x100003AF0, symSize: 0x18 }
  - { offsetInCU: 0x139FA, offset: 0x139FA, size: 0x8, addend: 0x0, symName: __ZNSt3__111__wrap_iterIPNS_12basic_stringIcNS_11char_traitsIcEENS_9allocatorIcEEEEEppB7v160006Ev, symObjAddr: 0xA58, symBinAddr: 0x100003B54, symSize: 0x20 }
  - { offsetInCU: 0x13A20, offset: 0x13A20, size: 0x8, addend: 0x0, symName: __ZNSt3__16vectorINS_12basic_stringIcNS_11char_traitsIcEENS_9allocatorIcEEEENS4_IS6_EEED1B7v160006Ev, symObjAddr: 0xA78, symBinAddr: 0x100003B74, symSize: 0x2C }
  - { offsetInCU: 0x13A4A, offset: 0x13A4A, size: 0x8, addend: 0x0, symName: __ZNSt3__114basic_ifstreamIcNS_11char_traitsIcEEED2Ev, symObjAddr: 0xAA4, symBinAddr: 0x100003BA0, symSize: 0x64 }
  - { offsetInCU: 0x13A84, offset: 0x13A84, size: 0x8, addend: 0x0, symName: __ZTv0_n24_NSt3__114basic_ifstreamIcNS_11char_traitsIcEEED1Ev, symObjAddr: 0xB08, symBinAddr: 0x100003C04, symSize: 0x28 }
  - { offsetInCU: 0x13A9B, offset: 0x13A9B, size: 0x8, addend: 0x0, symName: __ZNKSt3__111__wrap_iterIPNS_12basic_stringIcNS_11char_traitsIcEENS_9allocatorIcEEEEE4baseB7v160006Ev, symObjAddr: 0xB78, symBinAddr: 0x100003C74, symSize: 0x18 }
  - { offsetInCU: 0x13AC1, offset: 0x13AC1, size: 0x8, addend: 0x0, symName: __ZNSt3__112basic_stringIcNS_11char_traitsIcEENS_9allocatorIcEEEC2B7v160006Ev, symObjAddr: 0xB90, symBinAddr: 0x100003C8C, symSize: 0x54 }
  - { offsetInCU: 0x13AF0, offset: 0x13AF0, size: 0x8, addend: 0x0, symName: __ZNSt3__117__compressed_pairINS_12basic_stringIcNS_11char_traitsIcEENS_9allocatorIcEEE5__repES5_EC1B7v160006INS_18__default_init_tagESA_EEOT_OT0_, symObjAddr: 0xBE4, symBinAddr: 0x100003CE0, symSize: 0x3C }
  - { offsetInCU: 0x13B48, offset: 0x13B48, size: 0x8, addend: 0x0, symName: __ZNSt3__112basic_stringIcNS_11char_traitsIcEENS_9allocatorIcEEE14__default_initB7v160006Ev, symObjAddr: 0xC3C, symBinAddr: 0x100003D38, symSize: 0x40 }
  - { offsetInCU: 0x13B6E, offset: 0x13B6E, size: 0x8, addend: 0x0, symName: __ZNSt3__117__compressed_pairINS_12basic_stringIcNS_11char_traitsIcEENS_9allocatorIcEEE5__repES5_EC2B7v160006INS_18__default_init_tagESA_EEOT_OT0_, symObjAddr: 0xC7C, symBinAddr: 0x100003D78, symSize: 0x3C }
  - { offsetInCU: 0x13BC6, offset: 0x13BC6, size: 0x8, addend: 0x0, symName: __ZNSt3__122__compressed_pair_elemINS_12basic_stringIcNS_11char_traitsIcEENS_9allocatorIcEEE5__repELi0ELb0EEC2B7v160006ENS_18__default_init_tagE, symObjAddr: 0xCB8, symBinAddr: 0x100003DB4, symSize: 0x14 }
  - { offsetInCU: 0x13BFB, offset: 0x13BFB, size: 0x8, addend: 0x0, symName: __ZNSt3__122__compressed_pair_elemINS_9allocatorIcEELi1ELb1EEC2B7v160006ENS_18__default_init_tagE, symObjAddr: 0xCCC, symBinAddr: 0x100003DC8, symSize: 0x2C }
  - { offsetInCU: 0x13C30, offset: 0x13C30, size: 0x8, addend: 0x0, symName: __ZNSt3__19allocatorIcEC2B7v160006Ev, symObjAddr: 0xCF8, symBinAddr: 0x100003DF4, symSize: 0x2C }
  - { offsetInCU: 0x13C5A, offset: 0x13C5A, size: 0x8, addend: 0x0, symName: __ZNSt3__116__non_trivial_ifILb1ENS_9allocatorIcEEEC2B7v160006Ev, symObjAddr: 0xD24, symBinAddr: 0x100003E20, symSize: 0x14 }
  - { offsetInCU: 0x13C84, offset: 0x13C84, size: 0x8, addend: 0x0, symName: __ZNSt3__117__compressed_pairINS_12basic_stringIcNS_11char_traitsIcEENS_9allocatorIcEEE5__repES5_E5firstB7v160006Ev, symObjAddr: 0xD38, symBinAddr: 0x100003E34, symSize: 0x24 }
  - { offsetInCU: 0x13CAA, offset: 0x13CAA, size: 0x8, addend: 0x0, symName: __ZNSt3__122__compressed_pair_elemINS_12basic_stringIcNS_11char_traitsIcEENS_9allocatorIcEEE5__repELi0ELb0EE5__getB7v160006Ev, symObjAddr: 0xD5C, symBinAddr: 0x100003E58, symSize: 0x14 }
  - { offsetInCU: 0x13CD0, offset: 0x13CD0, size: 0x8, addend: 0x0, symName: __ZNKSt3__19basic_iosIcNS_11char_traitsIcEEE5widenB7v160006Ec, symObjAddr: 0xFA8, symBinAddr: 0x1000040A4, symSize: 0x84 }
  - { offsetInCU: 0x13D25, offset: 0x13D25, size: 0x8, addend: 0x0, symName: __ZNKSt3__113basic_istreamIcNS_11char_traitsIcEEE6sentrycvbB7v160006Ev, symObjAddr: 0x102C, symBinAddr: 0x100004128, symSize: 0x1C }
  - { offsetInCU: 0x13D4B, offset: 0x13D4B, size: 0x8, addend: 0x0, symName: __ZNSt3__112basic_stringIcNS_11char_traitsIcEENS_9allocatorIcEEE5clearB7v160006Ev, symObjAddr: 0x1048, symBinAddr: 0x100004144, symSize: 0x88 }
  - { offsetInCU: 0x13D73, offset: 0x13D73, size: 0x8, addend: 0x0, symName: __ZNKSt3__19basic_iosIcNS_11char_traitsIcEEE5rdbufB7v160006Ev, symObjAddr: 0x10D0, symBinAddr: 0x1000041CC, symSize: 0x24 }
  - { offsetInCU: 0x13D9B, offset: 0x13D9B, size: 0x8, addend: 0x0, symName: __ZNSt3__115basic_streambufIcNS_11char_traitsIcEEE6sbumpcB7v160006Ev, symObjAddr: 0x10F4, symBinAddr: 0x1000041F0, symSize: 0x78 }
  - { offsetInCU: 0x13DC1, offset: 0x13DC1, size: 0x8, addend: 0x0, symName: __ZNSt3__111char_traitsIcE11eq_int_typeEii, symObjAddr: 0x116C, symBinAddr: 0x100004268, symSize: 0x28 }
  - { offsetInCU: 0x13DF2, offset: 0x13DF2, size: 0x8, addend: 0x0, symName: __ZNSt3__111char_traitsIcE3eofEv, symObjAddr: 0x1194, symBinAddr: 0x100004290, symSize: 0x8 }
  - { offsetInCU: 0x13E06, offset: 0x13E06, size: 0x8, addend: 0x0, symName: __ZNSt3__111char_traitsIcE12to_char_typeEi, symObjAddr: 0x119C, symBinAddr: 0x100004298, symSize: 0x18 }
  - { offsetInCU: 0x13E29, offset: 0x13E29, size: 0x8, addend: 0x0, symName: __ZNSt3__111char_traitsIcE2eqEcc, symObjAddr: 0x11B4, symBinAddr: 0x1000042B0, symSize: 0x28 }
  - { offsetInCU: 0x13E5A, offset: 0x13E5A, size: 0x8, addend: 0x0, symName: __ZNKSt3__112basic_stringIcNS_11char_traitsIcEENS_9allocatorIcEEE4sizeB7v160006Ev, symObjAddr: 0x11DC, symBinAddr: 0x1000042D8, symSize: 0x54 }
  - { offsetInCU: 0x13E80, offset: 0x13E80, size: 0x8, addend: 0x0, symName: __ZNKSt3__112basic_stringIcNS_11char_traitsIcEENS_9allocatorIcEEE8max_sizeB7v160006Ev, symObjAddr: 0x1230, symBinAddr: 0x10000432C, symSize: 0xAC }
  - { offsetInCU: 0x13ED2, offset: 0x13ED2, size: 0x8, addend: 0x0, symName: __ZNSt3__18ios_base18__setstate_nothrowB7v160006Ej, symObjAddr: 0x12DC, symBinAddr: 0x1000043D8, symSize: 0x64 }
  - { offsetInCU: 0x13F07, offset: 0x13F07, size: 0x8, addend: 0x0, symName: __ZNKSt3__19basic_iosIcNS_11char_traitsIcEEE10exceptionsB7v160006Ev, symObjAddr: 0x1340, symBinAddr: 0x10000443C, symSize: 0x24 }
  - { offsetInCU: 0x13F2D, offset: 0x13F2D, size: 0x8, addend: 0x0, symName: __ZNSt3__19basic_iosIcNS_11char_traitsIcEEE8setstateB7v160006Ej, symObjAddr: 0x1364, symBinAddr: 0x100004460, symSize: 0x2C }
  - { offsetInCU: 0x13F62, offset: 0x13F62, size: 0x8, addend: 0x0, symName: __ZNKSt3__112basic_stringIcNS_11char_traitsIcEENS_9allocatorIcEEE9__is_longB7v160006Ev, symObjAddr: 0x13A0, symBinAddr: 0x10000449C, symSize: 0x38 }
  - { offsetInCU: 0x13F88, offset: 0x13F88, size: 0x8, addend: 0x0, symName: __ZNSt3__111char_traitsIcE6assignERcRKc, symObjAddr: 0x13D8, symBinAddr: 0x1000044D4, symSize: 0x24 }
  - { offsetInCU: 0x13FB9, offset: 0x13FB9, size: 0x8, addend: 0x0, symName: __ZNSt3__112basic_stringIcNS_11char_traitsIcEENS_9allocatorIcEEE18__get_long_pointerB7v160006Ev, symObjAddr: 0x13FC, symBinAddr: 0x1000044F8, symSize: 0x28 }
  - { offsetInCU: 0x13FDF, offset: 0x13FDF, size: 0x8, addend: 0x0, symName: __ZNSt3__112basic_stringIcNS_11char_traitsIcEENS_9allocatorIcEEE15__set_long_sizeB7v160006Em, symObjAddr: 0x1424, symBinAddr: 0x100004520, symSize: 0x38 }
  - { offsetInCU: 0x14014, offset: 0x14014, size: 0x8, addend: 0x0, symName: __ZNSt3__112basic_stringIcNS_11char_traitsIcEENS_9allocatorIcEEE19__get_short_pointerB7v160006Ev, symObjAddr: 0x145C, symBinAddr: 0x100004558, symSize: 0x28 }
  - { offsetInCU: 0x1403A, offset: 0x1403A, size: 0x8, addend: 0x0, symName: __ZNSt3__112basic_stringIcNS_11char_traitsIcEENS_9allocatorIcEEE16__set_short_sizeB7v160006Em, symObjAddr: 0x1484, symBinAddr: 0x100004580, symSize: 0x78 }
  - { offsetInCU: 0x1406F, offset: 0x1406F, size: 0x8, addend: 0x0, symName: __ZNKSt3__117__compressed_pairINS_12basic_stringIcNS_11char_traitsIcEENS_9allocatorIcEEE5__repES5_E5firstB7v160006Ev, symObjAddr: 0x14FC, symBinAddr: 0x1000045F8, symSize: 0x24 }
  - { offsetInCU: 0x14095, offset: 0x14095, size: 0x8, addend: 0x0, symName: __ZNKSt3__122__compressed_pair_elemINS_12basic_stringIcNS_11char_traitsIcEENS_9allocatorIcEEE5__repELi0ELb0EE5__getB7v160006Ev, symObjAddr: 0x1520, symBinAddr: 0x10000461C, symSize: 0x14 }
  - { offsetInCU: 0x140BB, offset: 0x140BB, size: 0x8, addend: 0x0, symName: __ZNSt3__114pointer_traitsIPcE10pointer_toB7v160006ERc, symObjAddr: 0x1534, symBinAddr: 0x100004630, symSize: 0x14 }
  - { offsetInCU: 0x140DE, offset: 0x140DE, size: 0x8, addend: 0x0, symName: __ZNKSt3__18ios_base5rdbufB7v160006Ev, symObjAddr: 0x1548, symBinAddr: 0x100004644, symSize: 0x18 }
  - { offsetInCU: 0x14104, offset: 0x14104, size: 0x8, addend: 0x0, symName: __ZNSt3__111char_traitsIcE11to_int_typeEc, symObjAddr: 0x1560, symBinAddr: 0x10000465C, symSize: 0x14 }
  - { offsetInCU: 0x14127, offset: 0x14127, size: 0x8, addend: 0x0, symName: __ZNKSt3__112basic_stringIcNS_11char_traitsIcEENS_9allocatorIcEEE15__get_long_sizeB7v160006Ev, symObjAddr: 0x1574, symBinAddr: 0x100004670, symSize: 0x28 }
  - { offsetInCU: 0x1414D, offset: 0x1414D, size: 0x8, addend: 0x0, symName: __ZNKSt3__112basic_stringIcNS_11char_traitsIcEENS_9allocatorIcEEE16__get_short_sizeB7v160006Ev, symObjAddr: 0x159C, symBinAddr: 0x100004698, symSize: 0x34 }
  - { offsetInCU: 0x1417D, offset: 0x1417D, size: 0x8, addend: 0x0, symName: __ZNSt3__116allocator_traitsINS_9allocatorIcEEE8max_sizeB7v160006IS2_vEEmRKS2_, symObjAddr: 0x15D0, symBinAddr: 0x1000046CC, symSize: 0x24 }
  - { offsetInCU: 0x141AB, offset: 0x141AB, size: 0x8, addend: 0x0, symName: __ZNKSt3__112basic_stringIcNS_11char_traitsIcEENS_9allocatorIcEEE7__allocB7v160006Ev, symObjAddr: 0x15F4, symBinAddr: 0x1000046F0, symSize: 0x24 }
  - { offsetInCU: 0x141D1, offset: 0x141D1, size: 0x8, addend: 0x0, symName: __ZNSt3__114numeric_limitsImE3maxB7v160006Ev, symObjAddr: 0x1618, symBinAddr: 0x100004714, symSize: 0x14 }
  - { offsetInCU: 0x141E5, offset: 0x141E5, size: 0x8, addend: 0x0, symName: __ZNKSt3__19allocatorIcE8max_sizeB7v160006Ev, symObjAddr: 0x162C, symBinAddr: 0x100004728, symSize: 0x14 }
  - { offsetInCU: 0x1420B, offset: 0x1420B, size: 0x8, addend: 0x0, symName: __ZNKSt3__117__compressed_pairINS_12basic_stringIcNS_11char_traitsIcEENS_9allocatorIcEEE5__repES5_E6secondB7v160006Ev, symObjAddr: 0x1640, symBinAddr: 0x10000473C, symSize: 0x24 }
  - { offsetInCU: 0x14231, offset: 0x14231, size: 0x8, addend: 0x0, symName: __ZNKSt3__122__compressed_pair_elemINS_9allocatorIcEELi1ELb1EE5__getB7v160006Ev, symObjAddr: 0x1664, symBinAddr: 0x100004760, symSize: 0x14 }
  - { offsetInCU: 0x14257, offset: 0x14257, size: 0x8, addend: 0x0, symName: __ZNSt3__123__libcpp_numeric_limitsImLb1EE3maxB7v160006Ev, symObjAddr: 0x1678, symBinAddr: 0x100004774, symSize: 0x8 }
  - { offsetInCU: 0x1426B, offset: 0x1426B, size: 0x8, addend: 0x0, symName: __ZNKSt3__18ios_base10exceptionsB7v160006Ev, symObjAddr: 0x1680, symBinAddr: 0x10000477C, symSize: 0x18 }
  - { offsetInCU: 0x14293, offset: 0x14293, size: 0x8, addend: 0x0, symName: __ZNSt3__18ios_base8setstateB7v160006Ej, symObjAddr: 0x1698, symBinAddr: 0x100004794, symSize: 0x34 }
  - { offsetInCU: 0x14301, offset: 0x14301, size: 0x8, addend: 0x0, symName: __ZNKSt3__15ctypeIcE5widenB7v160006Ec, symObjAddr: 0x16F8, symBinAddr: 0x1000047F4, symSize: 0x38 }
  - { offsetInCU: 0x14336, offset: 0x14336, size: 0x8, addend: 0x0, symName: __ZNKSt3__19basic_iosIcNS_11char_traitsIcEEE4failB7v160006Ev, symObjAddr: 0x1730, symBinAddr: 0x10000482C, symSize: 0x28 }
  - { offsetInCU: 0x1435C, offset: 0x1435C, size: 0x8, addend: 0x0, symName: __ZNKSt3__18ios_base4failB7v160006Ev, symObjAddr: 0x1758, symBinAddr: 0x100004854, symSize: 0x28 }
  - { offsetInCU: 0x14384, offset: 0x14384, size: 0x8, addend: 0x0, symName: __ZNSt3__16vectorINS_12basic_stringIcNS_11char_traitsIcEENS_9allocatorIcEEEENS4_IS6_EEE9__end_capB7v160006Ev, symObjAddr: 0x1780, symBinAddr: 0x10000487C, symSize: 0x28 }
  - { offsetInCU: 0x143AA, offset: 0x143AA, size: 0x8, addend: 0x0, symName: __ZNSt3__16vectorINS_12basic_stringIcNS_11char_traitsIcEENS_9allocatorIcEEEENS4_IS6_EEE22__construct_one_at_endB7v160006IJRKS6_EEEvDpOT_, symObjAddr: 0x17A8, symBinAddr: 0x1000048A4, symSize: 0x90 }
  - { offsetInCU: 0x143F9, offset: 0x143F9, size: 0x8, addend: 0x0, symName: __ZNSt3__16vectorINS_12basic_stringIcNS_11char_traitsIcEENS_9allocatorIcEEEENS4_IS6_EEE21__push_back_slow_pathIRKS6_EEvOT_, symObjAddr: 0x1838, symBinAddr: 0x100004934, symSize: 0xD8 }
  - { offsetInCU: 0x14457, offset: 0x14457, size: 0x8, addend: 0x0, symName: __ZNSt3__117__compressed_pairIPNS_12basic_stringIcNS_11char_traitsIcEENS_9allocatorIcEEEENS4_IS6_EEE5firstB7v160006Ev, symObjAddr: 0x1910, symBinAddr: 0x100004A0C, symSize: 0x24 }
  - { offsetInCU: 0x1447D, offset: 0x1447D, size: 0x8, addend: 0x0, symName: __ZNSt3__122__compressed_pair_elemIPNS_12basic_stringIcNS_11char_traitsIcEENS_9allocatorIcEEEELi0ELb0EE5__getB7v160006Ev, symObjAddr: 0x1934, symBinAddr: 0x100004A30, symSize: 0x14 }
  - { offsetInCU: 0x144BC, offset: 0x144BC, size: 0x8, addend: 0x0, symName: __ZNSt3__16vectorINS_12basic_stringIcNS_11char_traitsIcEENS_9allocatorIcEEEENS4_IS6_EEE21_ConstructTransactionC1B7v160006ERS8_m, symObjAddr: 0x1948, symBinAddr: 0x100004A44, symSize: 0x3C }
  - { offsetInCU: 0x14504, offset: 0x14504, size: 0x8, addend: 0x0, symName: __ZNSt3__116allocator_traitsINS_9allocatorINS_12basic_stringIcNS_11char_traitsIcEENS1_IcEEEEEEE9constructB7v160006IS6_JRKS6_EvEEvRS7_PT_DpOT0_, symObjAddr: 0x1984, symBinAddr: 0x100004A80, symSize: 0x34 }
  - { offsetInCU: 0x1455B, offset: 0x1455B, size: 0x8, addend: 0x0, symName: __ZNSt3__16vectorINS_12basic_stringIcNS_11char_traitsIcEENS_9allocatorIcEEEENS4_IS6_EEE7__allocB7v160006Ev, symObjAddr: 0x19B8, symBinAddr: 0x100004AB4, symSize: 0x28 }
  - { offsetInCU: 0x14581, offset: 0x14581, size: 0x8, addend: 0x0, symName: __ZNSt3__16vectorINS_12basic_stringIcNS_11char_traitsIcEENS_9allocatorIcEEEENS4_IS6_EEE21_ConstructTransactionD1B7v160006Ev, symObjAddr: 0x19F4, symBinAddr: 0x100004AF0, symSize: 0x2C }
  - { offsetInCU: 0x145AB, offset: 0x145AB, size: 0x8, addend: 0x0, symName: __ZNSt3__16vectorINS_12basic_stringIcNS_11char_traitsIcEENS_9allocatorIcEEEENS4_IS6_EEE21_ConstructTransactionC2B7v160006ERS8_m, symObjAddr: 0x1A20, symBinAddr: 0x100004B1C, symSize: 0x4C }
  - { offsetInCU: 0x145F3, offset: 0x145F3, size: 0x8, addend: 0x0, symName: __ZNSt3__19allocatorINS_12basic_stringIcNS_11char_traitsIcEENS0_IcEEEEE9constructB7v160006IS5_JRKS5_EEEvPT_DpOT0_, symObjAddr: 0x1A6C, symBinAddr: 0x100004B68, symSize: 0x30 }
  - { offsetInCU: 0x14649, offset: 0x14649, size: 0x8, addend: 0x0, symName: __ZNSt3__117__compressed_pairIPNS_12basic_stringIcNS_11char_traitsIcEENS_9allocatorIcEEEENS4_IS6_EEE6secondB7v160006Ev, symObjAddr: 0x1A9C, symBinAddr: 0x100004B98, symSize: 0x24 }
  - { offsetInCU: 0x1466F, offset: 0x1466F, size: 0x8, addend: 0x0, symName: __ZNSt3__122__compressed_pair_elemINS_9allocatorINS_12basic_stringIcNS_11char_traitsIcEENS1_IcEEEEEELi1ELb1EE5__getB7v160006Ev, symObjAddr: 0x1AC0, symBinAddr: 0x100004BBC, symSize: 0x14 }
  - { offsetInCU: 0x14695, offset: 0x14695, size: 0x8, addend: 0x0, symName: __ZNSt3__16vectorINS_12basic_stringIcNS_11char_traitsIcEENS_9allocatorIcEEEENS4_IS6_EEE21_ConstructTransactionD2B7v160006Ev, symObjAddr: 0x1AD4, symBinAddr: 0x100004BD0, symSize: 0x20 }
  - { offsetInCU: 0x146BF, offset: 0x146BF, size: 0x8, addend: 0x0, symName: __ZNKSt3__16vectorINS_12basic_stringIcNS_11char_traitsIcEENS_9allocatorIcEEEENS4_IS6_EEE11__recommendB7v160006Em, symObjAddr: 0x1AF4, symBinAddr: 0x100004BF0, symSize: 0xB4 }
  - { offsetInCU: 0x14714, offset: 0x14714, size: 0x8, addend: 0x0, symName: __ZNSt3__114__split_bufferINS_12basic_stringIcNS_11char_traitsIcEENS_9allocatorIcEEEERNS4_IS6_EEEC1EmmS8_, symObjAddr: 0x1BA8, symBinAddr: 0x100004CA4, symSize: 0x44 }
  - { offsetInCU: 0x1476A, offset: 0x1476A, size: 0x8, addend: 0x0, symName: __ZNSt3__114__split_bufferINS_12basic_stringIcNS_11char_traitsIcEENS_9allocatorIcEEEERNS4_IS6_EEED1Ev, symObjAddr: 0x1D04, symBinAddr: 0x100004E00, symSize: 0x2C }
  - { offsetInCU: 0x14796, offset: 0x14796, size: 0x8, addend: 0x0, symName: __ZNKSt3__16vectorINS_12basic_stringIcNS_11char_traitsIcEENS_9allocatorIcEEEENS4_IS6_EEE8max_sizeEv, symObjAddr: 0x1D30, symBinAddr: 0x100004E2C, symSize: 0x60 }
  - { offsetInCU: 0x147BE, offset: 0x147BE, size: 0x8, addend: 0x0, symName: __ZNKSt3__16vectorINS_12basic_stringIcNS_11char_traitsIcEENS_9allocatorIcEEEENS4_IS6_EEE20__throw_length_errorB7v160006Ev, symObjAddr: 0x1D90, symBinAddr: 0x100004E8C, symSize: 0x1C }
  - { offsetInCU: 0x147E4, offset: 0x147E4, size: 0x8, addend: 0x0, symName: __ZNKSt3__16vectorINS_12basic_stringIcNS_11char_traitsIcEENS_9allocatorIcEEEENS4_IS6_EEE8capacityB7v160006Ev, symObjAddr: 0x1DAC, symBinAddr: 0x100004EA8, symSize: 0x40 }
  - { offsetInCU: 0x14814, offset: 0x14814, size: 0x8, addend: 0x0, symName: __ZNSt3__116allocator_traitsINS_9allocatorINS_12basic_stringIcNS_11char_traitsIcEENS1_IcEEEEEEE8max_sizeB7v160006IS7_vEEmRKS7_, symObjAddr: 0x1E44, symBinAddr: 0x100004F40, symSize: 0x24 }
  - { offsetInCU: 0x14842, offset: 0x14842, size: 0x8, addend: 0x0, symName: __ZNKSt3__16vectorINS_12basic_stringIcNS_11char_traitsIcEENS_9allocatorIcEEEENS4_IS6_EEE7__allocB7v160006Ev, symObjAddr: 0x1E68, symBinAddr: 0x100004F64, symSize: 0x28 }
  - { offsetInCU: 0x14868, offset: 0x14868, size: 0x8, addend: 0x0, symName: __ZNSt3__114numeric_limitsIlE3maxB7v160006Ev, symObjAddr: 0x1E90, symBinAddr: 0x100004F8C, symSize: 0x14 }
  - { offsetInCU: 0x14890, offset: 0x14890, size: 0x8, addend: 0x0, symName: __ZNKSt3__16__lessImmEclB7v160006ERKmS3_, symObjAddr: 0x1EF8, symBinAddr: 0x100004FF4, symSize: 0x34 }
  - { offsetInCU: 0x148D2, offset: 0x148D2, size: 0x8, addend: 0x0, symName: __ZNKSt3__19allocatorINS_12basic_stringIcNS_11char_traitsIcEENS0_IcEEEEE8max_sizeB7v160006Ev, symObjAddr: 0x1F2C, symBinAddr: 0x100005028, symSize: 0x18 }
  - { offsetInCU: 0x148F8, offset: 0x148F8, size: 0x8, addend: 0x0, symName: __ZNKSt3__117__compressed_pairIPNS_12basic_stringIcNS_11char_traitsIcEENS_9allocatorIcEEEENS4_IS6_EEE6secondB7v160006Ev, symObjAddr: 0x1F44, symBinAddr: 0x100005040, symSize: 0x24 }
  - { offsetInCU: 0x1491E, offset: 0x1491E, size: 0x8, addend: 0x0, symName: __ZNKSt3__122__compressed_pair_elemINS_9allocatorINS_12basic_stringIcNS_11char_traitsIcEENS1_IcEEEEEELi1ELb1EE5__getB7v160006Ev, symObjAddr: 0x1F68, symBinAddr: 0x100005064, symSize: 0x14 }
  - { offsetInCU: 0x14944, offset: 0x14944, size: 0x8, addend: 0x0, symName: __ZNSt3__123__libcpp_numeric_limitsIlLb1EE3maxB7v160006Ev, symObjAddr: 0x1F7C, symBinAddr: 0x100005078, symSize: 0x8 }
  - { offsetInCU: 0x14958, offset: 0x14958, size: 0x8, addend: 0x0, symName: __ZNSt12length_errorC1B7v160006EPKc, symObjAddr: 0x1FE8, symBinAddr: 0x1000050E4, symSize: 0x34 }
  - { offsetInCU: 0x14990, offset: 0x14990, size: 0x8, addend: 0x0, symName: __ZNSt12length_errorC2B7v160006EPKc, symObjAddr: 0x201C, symBinAddr: 0x100005118, symSize: 0x4C }
  - { offsetInCU: 0x149C8, offset: 0x149C8, size: 0x8, addend: 0x0, symName: __ZNKSt3__16vectorINS_12basic_stringIcNS_11char_traitsIcEENS_9allocatorIcEEEENS4_IS6_EEE9__end_capB7v160006Ev, symObjAddr: 0x2068, symBinAddr: 0x100005164, symSize: 0x28 }
  - { offsetInCU: 0x149EE, offset: 0x149EE, size: 0x8, addend: 0x0, symName: __ZNKSt3__117__compressed_pairIPNS_12basic_stringIcNS_11char_traitsIcEENS_9allocatorIcEEEENS4_IS6_EEE5firstB7v160006Ev, symObjAddr: 0x2090, symBinAddr: 0x10000518C, symSize: 0x24 }
  - { offsetInCU: 0x14A14, offset: 0x14A14, size: 0x8, addend: 0x0, symName: __ZNKSt3__122__compressed_pair_elemIPNS_12basic_stringIcNS_11char_traitsIcEENS_9allocatorIcEEEELi0ELb0EE5__getB7v160006Ev, symObjAddr: 0x20B4, symBinAddr: 0x1000051B0, symSize: 0x14 }
  - { offsetInCU: 0x14A3A, offset: 0x14A3A, size: 0x8, addend: 0x0, symName: __ZNSt3__114__split_bufferINS_12basic_stringIcNS_11char_traitsIcEENS_9allocatorIcEEEERNS4_IS6_EEEC2EmmS8_, symObjAddr: 0x211C, symBinAddr: 0x100005218, symSize: 0xE0 }
  - { offsetInCU: 0x14AB2, offset: 0x14AB2, size: 0x8, addend: 0x0, symName: __ZNSt3__117__compressed_pairIPNS_12basic_stringIcNS_11char_traitsIcEENS_9allocatorIcEEEERNS4_IS6_EEEC1B7v160006IDnS9_EEOT_OT0_, symObjAddr: 0x21FC, symBinAddr: 0x1000052F8, symSize: 0x3C }
  - { offsetInCU: 0x14B0A, offset: 0x14B0A, size: 0x8, addend: 0x0, symName: __ZNSt3__114__split_bufferINS_12basic_stringIcNS_11char_traitsIcEENS_9allocatorIcEEEERNS4_IS6_EEE7__allocB7v160006Ev, symObjAddr: 0x2278, symBinAddr: 0x100005374, symSize: 0x28 }
  - { offsetInCU: 0x14B30, offset: 0x14B30, size: 0x8, addend: 0x0, symName: __ZNSt3__114__split_bufferINS_12basic_stringIcNS_11char_traitsIcEENS_9allocatorIcEEEERNS4_IS6_EEE9__end_capB7v160006Ev, symObjAddr: 0x22A0, symBinAddr: 0x10000539C, symSize: 0x28 }
  - { offsetInCU: 0x14B56, offset: 0x14B56, size: 0x8, addend: 0x0, symName: __ZNSt3__117__compressed_pairIPNS_12basic_stringIcNS_11char_traitsIcEENS_9allocatorIcEEEERNS4_IS6_EEEC2B7v160006IDnS9_EEOT_OT0_, symObjAddr: 0x22C8, symBinAddr: 0x1000053C4, symSize: 0x48 }
  - { offsetInCU: 0x14BAE, offset: 0x14BAE, size: 0x8, addend: 0x0, symName: __ZNSt3__122__compressed_pair_elemIPNS_12basic_stringIcNS_11char_traitsIcEENS_9allocatorIcEEEELi0ELb0EEC2B7v160006IDnvEEOT_, symObjAddr: 0x2310, symBinAddr: 0x10000540C, symSize: 0x1C }
  - { offsetInCU: 0x14BF0, offset: 0x14BF0, size: 0x8, addend: 0x0, symName: __ZNSt3__122__compressed_pair_elemIRNS_9allocatorINS_12basic_stringIcNS_11char_traitsIcEENS1_IcEEEEEELi1ELb0EEC2B7v160006IS8_vEEOT_, symObjAddr: 0x232C, symBinAddr: 0x100005428, symSize: 0x20 }
  - { offsetInCU: 0x14C32, offset: 0x14C32, size: 0x8, addend: 0x0, symName: __ZNSt3__19allocatorINS_12basic_stringIcNS_11char_traitsIcEENS0_IcEEEEE8allocateB7v160006Em, symObjAddr: 0x234C, symBinAddr: 0x100005448, symSize: 0x5C }
  - { offsetInCU: 0x14C66, offset: 0x14C66, size: 0x8, addend: 0x0, symName: __ZNSt3__117__compressed_pairIPNS_12basic_stringIcNS_11char_traitsIcEENS_9allocatorIcEEEERNS4_IS6_EEE6secondB7v160006Ev, symObjAddr: 0x24AC, symBinAddr: 0x1000055A8, symSize: 0x28 }
  - { offsetInCU: 0x14C8C, offset: 0x14C8C, size: 0x8, addend: 0x0, symName: __ZNSt3__122__compressed_pair_elemIRNS_9allocatorINS_12basic_stringIcNS_11char_traitsIcEENS1_IcEEEEEELi1ELb0EE5__getB7v160006Ev, symObjAddr: 0x24D4, symBinAddr: 0x1000055D0, symSize: 0x18 }
  - { offsetInCU: 0x14CB2, offset: 0x14CB2, size: 0x8, addend: 0x0, symName: __ZNSt3__117__compressed_pairIPNS_12basic_stringIcNS_11char_traitsIcEENS_9allocatorIcEEEERNS4_IS6_EEE5firstB7v160006Ev, symObjAddr: 0x24EC, symBinAddr: 0x1000055E8, symSize: 0x24 }
  - { offsetInCU: 0x14CD8, offset: 0x14CD8, size: 0x8, addend: 0x0, symName: __ZNKSt3__16vectorINS_12basic_stringIcNS_11char_traitsIcEENS_9allocatorIcEEEENS4_IS6_EEE17__annotate_deleteB7v160006Ev, symObjAddr: 0x2510, symBinAddr: 0x10000560C, symSize: 0xD4 }
  - { offsetInCU: 0x14CFE, offset: 0x14CFE, size: 0x8, addend: 0x0, symName: __ZNSt3__116reverse_iteratorIPNS_12basic_stringIcNS_11char_traitsIcEENS_9allocatorIcEEEEEC1B7v160006ES7_, symObjAddr: 0x2710, symBinAddr: 0x10000580C, symSize: 0x34 }
  - { offsetInCU: 0x14D36, offset: 0x14D36, size: 0x8, addend: 0x0, symName: __ZNKSt3__116reverse_iteratorIPNS_12basic_stringIcNS_11char_traitsIcEENS_9allocatorIcEEEEE4baseB7v160006Ev, symObjAddr: 0x2744, symBinAddr: 0x100005840, symSize: 0x18 }
  - { offsetInCU: 0x14D5C, offset: 0x14D5C, size: 0x8, addend: 0x0, symName: __ZNKSt3__16vectorINS_12basic_stringIcNS_11char_traitsIcEENS_9allocatorIcEEEENS4_IS6_EEE14__annotate_newB7v160006Em, symObjAddr: 0x2798, symBinAddr: 0x100005894, symSize: 0xC8 }
  - { offsetInCU: 0x14D91, offset: 0x14D91, size: 0x8, addend: 0x0, symName: __ZNKSt3__16vectorINS_12basic_stringIcNS_11char_traitsIcEENS_9allocatorIcEEEENS4_IS6_EEE31__annotate_contiguous_containerB7v160006EPKvSA_SA_SA_, symObjAddr: 0x2870, symBinAddr: 0x10000596C, symSize: 0x20 }
  - { offsetInCU: 0x14DE7, offset: 0x14DE7, size: 0x8, addend: 0x0, symName: __ZNKSt3__16vectorINS_12basic_stringIcNS_11char_traitsIcEENS_9allocatorIcEEEENS4_IS6_EEE4dataB7v160006Ev, symObjAddr: 0x2890, symBinAddr: 0x10000598C, symSize: 0x28 }
  - { offsetInCU: 0x14E0D, offset: 0x14E0D, size: 0x8, addend: 0x0, symName: __ZNSt3__129_AllocatorDestroyRangeReverseINS_9allocatorINS_12basic_stringIcNS_11char_traitsIcEENS1_IcEEEEEENS_16reverse_iteratorIPS6_EEEC1B7v160006ERS7_RSA_SD_, symObjAddr: 0x2904, symBinAddr: 0x100005A00, symSize: 0x44 }
  - { offsetInCU: 0x14E69, offset: 0x14E69, size: 0x8, addend: 0x0, symName: __ZNSt3__116allocator_traitsINS_9allocatorINS_12basic_stringIcNS_11char_traitsIcEENS1_IcEEEEEEE9constructB7v160006IS6_JS6_EvEEvRS7_PT_DpOT0_, symObjAddr: 0x2990, symBinAddr: 0x100005A8C, symSize: 0x34 }
  - { offsetInCU: 0x14EC0, offset: 0x14EC0, size: 0x8, addend: 0x0, symName: __ZNKSt3__116reverse_iteratorIPNS_12basic_stringIcNS_11char_traitsIcEENS_9allocatorIcEEEEEdeB7v160006Ev, symObjAddr: 0x29E8, symBinAddr: 0x100005AE4, symSize: 0x28 }
  - { offsetInCU: 0x14EF4, offset: 0x14EF4, size: 0x8, addend: 0x0, symName: __ZNSt3__116reverse_iteratorIPNS_12basic_stringIcNS_11char_traitsIcEENS_9allocatorIcEEEEEppB7v160006Ev, symObjAddr: 0x2A10, symBinAddr: 0x100005B0C, symSize: 0x20 }
  - { offsetInCU: 0x14F1A, offset: 0x14F1A, size: 0x8, addend: 0x0, symName: __ZNSt3__128__exception_guard_exceptionsINS_29_AllocatorDestroyRangeReverseINS_9allocatorINS_12basic_stringIcNS_11char_traitsIcEENS2_IcEEEEEENS_16reverse_iteratorIPS7_EEEEE10__completeB7v160006Ev, symObjAddr: 0x2A30, symBinAddr: 0x100005B2C, symSize: 0x1C }
  - { offsetInCU: 0x14F40, offset: 0x14F40, size: 0x8, addend: 0x0, symName: __ZNSt3__128__exception_guard_exceptionsINS_29_AllocatorDestroyRangeReverseINS_9allocatorINS_12basic_stringIcNS_11char_traitsIcEENS2_IcEEEEEENS_16reverse_iteratorIPS7_EEEEED1B7v160006Ev, symObjAddr: 0x2A4C, symBinAddr: 0x100005B48, symSize: 0x2C }
  - { offsetInCU: 0x14F6A, offset: 0x14F6A, size: 0x8, addend: 0x0, symName: __ZNSt3__128__exception_guard_exceptionsINS_29_AllocatorDestroyRangeReverseINS_9allocatorINS_12basic_stringIcNS_11char_traitsIcEENS2_IcEEEEEENS_16reverse_iteratorIPS7_EEEEEC1B7v160006ESC_, symObjAddr: 0x2A78, symBinAddr: 0x100005B74, symSize: 0x34 }
  - { offsetInCU: 0x14FA3, offset: 0x14FA3, size: 0x8, addend: 0x0, symName: __ZNSt3__128__exception_guard_exceptionsINS_29_AllocatorDestroyRangeReverseINS_9allocatorINS_12basic_stringIcNS_11char_traitsIcEENS2_IcEEEEEENS_16reverse_iteratorIPS7_EEEEEC2B7v160006ESC_, symObjAddr: 0x2AAC, symBinAddr: 0x100005BA8, symSize: 0x30 }
  - { offsetInCU: 0x14FDC, offset: 0x14FDC, size: 0x8, addend: 0x0, symName: __ZNSt3__129_AllocatorDestroyRangeReverseINS_9allocatorINS_12basic_stringIcNS_11char_traitsIcEENS1_IcEEEEEENS_16reverse_iteratorIPS6_EEEC2B7v160006ERS7_RSA_SD_, symObjAddr: 0x2ADC, symBinAddr: 0x100005BD8, symSize: 0x38 }
  - { offsetInCU: 0x15033, offset: 0x15033, size: 0x8, addend: 0x0, symName: __ZNSt3__19allocatorINS_12basic_stringIcNS_11char_traitsIcEENS0_IcEEEEE9constructB7v160006IS5_JS5_EEEvPT_DpOT0_, symObjAddr: 0x2B14, symBinAddr: 0x100005C10, symSize: 0x30 }
  - { offsetInCU: 0x15089, offset: 0x15089, size: 0x8, addend: 0x0, symName: __ZNSt3__112basic_stringIcNS_11char_traitsIcEENS_9allocatorIcEEEC1B7v160006EOS5_, symObjAddr: 0x2B44, symBinAddr: 0x100005C40, symSize: 0x34 }
  - { offsetInCU: 0x150C2, offset: 0x150C2, size: 0x8, addend: 0x0, symName: __ZNSt3__112basic_stringIcNS_11char_traitsIcEENS_9allocatorIcEEEC2B7v160006EOS5_, symObjAddr: 0x2B78, symBinAddr: 0x100005C74, symSize: 0x80 }
  - { offsetInCU: 0x15100, offset: 0x15100, size: 0x8, addend: 0x0, symName: __ZNSt3__119__to_address_helperINS_16reverse_iteratorIPNS_12basic_stringIcNS_11char_traitsIcEENS_9allocatorIcEEEEEEvE6__callB7v160006ERKS9_, symObjAddr: 0x2C0C, symBinAddr: 0x100005D08, symSize: 0x38 }
  - { offsetInCU: 0x15123, offset: 0x15123, size: 0x8, addend: 0x0, symName: __ZNKSt3__116reverse_iteratorIPNS_12basic_stringIcNS_11char_traitsIcEENS_9allocatorIcEEEEEptB7v160006Ev, symObjAddr: 0x2C44, symBinAddr: 0x100005D40, symSize: 0x24 }
  - { offsetInCU: 0x15149, offset: 0x15149, size: 0x8, addend: 0x0, symName: __ZNSt3__128__exception_guard_exceptionsINS_29_AllocatorDestroyRangeReverseINS_9allocatorINS_12basic_stringIcNS_11char_traitsIcEENS2_IcEEEEEENS_16reverse_iteratorIPS7_EEEEED2B7v160006Ev, symObjAddr: 0x2C68, symBinAddr: 0x100005D64, symSize: 0x50 }
  - { offsetInCU: 0x15173, offset: 0x15173, size: 0x8, addend: 0x0, symName: __ZNKSt3__129_AllocatorDestroyRangeReverseINS_9allocatorINS_12basic_stringIcNS_11char_traitsIcEENS1_IcEEEEEENS_16reverse_iteratorIPS6_EEEclB7v160006Ev, symObjAddr: 0x2CB8, symBinAddr: 0x100005DB4, symSize: 0xB4 }
  - { offsetInCU: 0x1519A, offset: 0x1519A, size: 0x8, addend: 0x0, symName: __ZNSt3__116reverse_iteratorINS0_IPNS_12basic_stringIcNS_11char_traitsIcEENS_9allocatorIcEEEEEEEC1B7v160006ES8_, symObjAddr: 0x2DDC, symBinAddr: 0x100005ED8, symSize: 0x3C }
  - { offsetInCU: 0x151D2, offset: 0x151D2, size: 0x8, addend: 0x0, symName: __ZNSt3__116allocator_traitsINS_9allocatorINS_12basic_stringIcNS_11char_traitsIcEENS1_IcEEEEEEE7destroyB7v160006IS6_vEEvRS7_PT_, symObjAddr: 0x2E78, symBinAddr: 0x100005F74, symSize: 0x2C }
  - { offsetInCU: 0x1520F, offset: 0x1520F, size: 0x8, addend: 0x0, symName: __ZNSt3__116reverse_iteratorINS0_IPNS_12basic_stringIcNS_11char_traitsIcEENS_9allocatorIcEEEEEEEppB7v160006Ev, symObjAddr: 0x2EC8, symBinAddr: 0x100005FC4, symSize: 0x30 }
  - { offsetInCU: 0x15235, offset: 0x15235, size: 0x8, addend: 0x0, symName: __ZNKSt3__116reverse_iteratorINS0_IPNS_12basic_stringIcNS_11char_traitsIcEENS_9allocatorIcEEEEEEE4baseB7v160006Ev, symObjAddr: 0x2EF8, symBinAddr: 0x100005FF4, symSize: 0x24 }
  - { offsetInCU: 0x1525B, offset: 0x1525B, size: 0x8, addend: 0x0, symName: __ZNSt3__19allocatorINS_12basic_stringIcNS_11char_traitsIcEENS0_IcEEEEE7destroyB7v160006EPS5_, symObjAddr: 0x2F1C, symBinAddr: 0x100006018, symSize: 0x28 }
  - { offsetInCU: 0x15294, offset: 0x15294, size: 0x8, addend: 0x0, symName: __ZNSt3__119__to_address_helperINS_16reverse_iteratorINS1_IPNS_12basic_stringIcNS_11char_traitsIcEENS_9allocatorIcEEEEEEEEvE6__callB7v160006ERKSA_, symObjAddr: 0x2F44, symBinAddr: 0x100006040, symSize: 0x38 }
  - { offsetInCU: 0x152B7, offset: 0x152B7, size: 0x8, addend: 0x0, symName: __ZNKSt3__116reverse_iteratorINS0_IPNS_12basic_stringIcNS_11char_traitsIcEENS_9allocatorIcEEEEEEEptB7v160006Ev, symObjAddr: 0x2F7C, symBinAddr: 0x100006078, symSize: 0x24 }
  - { offsetInCU: 0x152DD, offset: 0x152DD, size: 0x8, addend: 0x0, symName: __ZNKSt3__116reverse_iteratorINS0_IPNS_12basic_stringIcNS_11char_traitsIcEENS_9allocatorIcEEEEEEEdeB7v160006Ev, symObjAddr: 0x2FA0, symBinAddr: 0x10000609C, symSize: 0x34 }
  - { offsetInCU: 0x15311, offset: 0x15311, size: 0x8, addend: 0x0, symName: __ZNSt3__116reverse_iteratorIPNS_12basic_stringIcNS_11char_traitsIcEENS_9allocatorIcEEEEEmmB7v160006Ev, symObjAddr: 0x2FD4, symBinAddr: 0x1000060D0, symSize: 0x20 }
  - { offsetInCU: 0x15337, offset: 0x15337, size: 0x8, addend: 0x0, symName: __ZNSt3__116reverse_iteratorINS0_IPNS_12basic_stringIcNS_11char_traitsIcEENS_9allocatorIcEEEEEEEC2B7v160006ES8_, symObjAddr: 0x2FF4, symBinAddr: 0x1000060F0, symSize: 0x2C }
  - { offsetInCU: 0x1536F, offset: 0x1536F, size: 0x8, addend: 0x0, symName: __ZNSt3__116reverse_iteratorIPNS_12basic_stringIcNS_11char_traitsIcEENS_9allocatorIcEEEEEC2B7v160006ES7_, symObjAddr: 0x3020, symBinAddr: 0x10000611C, symSize: 0x28 }
  - { offsetInCU: 0x153A7, offset: 0x153A7, size: 0x8, addend: 0x0, symName: __ZNSt3__114__split_bufferINS_12basic_stringIcNS_11char_traitsIcEENS_9allocatorIcEEEERNS4_IS6_EEED2Ev, symObjAddr: 0x3048, symBinAddr: 0x100006144, symSize: 0x8C }
  - { offsetInCU: 0x153D3, offset: 0x153D3, size: 0x8, addend: 0x0, symName: __ZNSt3__114__split_bufferINS_12basic_stringIcNS_11char_traitsIcEENS_9allocatorIcEEEERNS4_IS6_EEE5clearB7v160006Ev, symObjAddr: 0x30D4, symBinAddr: 0x1000061D0, symSize: 0x28 }
  - { offsetInCU: 0x153F9, offset: 0x153F9, size: 0x8, addend: 0x0, symName: __ZNSt3__116allocator_traitsINS_9allocatorINS_12basic_stringIcNS_11char_traitsIcEENS1_IcEEEEEEE10deallocateB7v160006ERS7_PS6_m, symObjAddr: 0x30FC, symBinAddr: 0x1000061F8, symSize: 0x34 }
  - { offsetInCU: 0x1543B, offset: 0x1543B, size: 0x8, addend: 0x0, symName: __ZNKSt3__114__split_bufferINS_12basic_stringIcNS_11char_traitsIcEENS_9allocatorIcEEEERNS4_IS6_EEE8capacityB7v160006Ev, symObjAddr: 0x3130, symBinAddr: 0x10000622C, symSize: 0x40 }
  - { offsetInCU: 0x15461, offset: 0x15461, size: 0x8, addend: 0x0, symName: __ZNSt3__114__split_bufferINS_12basic_stringIcNS_11char_traitsIcEENS_9allocatorIcEEEERNS4_IS6_EEE17__destruct_at_endB7v160006EPS6_, symObjAddr: 0x3170, symBinAddr: 0x10000626C, symSize: 0x2C }
  - { offsetInCU: 0x15495, offset: 0x15495, size: 0x8, addend: 0x0, symName: __ZNSt3__114__split_bufferINS_12basic_stringIcNS_11char_traitsIcEENS_9allocatorIcEEEERNS4_IS6_EEE17__destruct_at_endB7v160006EPS6_NS_17integral_constantIbLb0EEE, symObjAddr: 0x319C, symBinAddr: 0x100006298, symSize: 0x80 }
  - { offsetInCU: 0x154D6, offset: 0x154D6, size: 0x8, addend: 0x0, symName: __ZNSt3__19allocatorINS_12basic_stringIcNS_11char_traitsIcEENS0_IcEEEEE10deallocateB7v160006EPS5_m, symObjAddr: 0x321C, symBinAddr: 0x100006318, symSize: 0x44 }
  - { offsetInCU: 0x15518, offset: 0x15518, size: 0x8, addend: 0x0, symName: __ZNKSt3__114__split_bufferINS_12basic_stringIcNS_11char_traitsIcEENS_9allocatorIcEEEERNS4_IS6_EEE9__end_capB7v160006Ev, symObjAddr: 0x3368, symBinAddr: 0x100006464, symSize: 0x28 }
  - { offsetInCU: 0x1553E, offset: 0x1553E, size: 0x8, addend: 0x0, symName: __ZNKSt3__117__compressed_pairIPNS_12basic_stringIcNS_11char_traitsIcEENS_9allocatorIcEEEERNS4_IS6_EEE5firstB7v160006Ev, symObjAddr: 0x3390, symBinAddr: 0x10000648C, symSize: 0x24 }
  - { offsetInCU: 0x15564, offset: 0x15564, size: 0x8, addend: 0x0, symName: __ZNSt3__16vectorINS_12basic_stringIcNS_11char_traitsIcEENS_9allocatorIcEEEENS4_IS6_EEEC2B7v160006Ev, symObjAddr: 0x33B4, symBinAddr: 0x1000064B0, symSize: 0x58 }
  - { offsetInCU: 0x1558E, offset: 0x1558E, size: 0x8, addend: 0x0, symName: __ZNSt3__117__compressed_pairIPNS_12basic_stringIcNS_11char_traitsIcEENS_9allocatorIcEEEENS4_IS6_EEEC1B7v160006IDnNS_18__default_init_tagEEEOT_OT0_, symObjAddr: 0x340C, symBinAddr: 0x100006508, symSize: 0x3C }
  - { offsetInCU: 0x155E6, offset: 0x155E6, size: 0x8, addend: 0x0, symName: __ZNSt3__117__compressed_pairIPNS_12basic_stringIcNS_11char_traitsIcEENS_9allocatorIcEEEENS4_IS6_EEEC2B7v160006IDnNS_18__default_init_tagEEEOT_OT0_, symObjAddr: 0x3458, symBinAddr: 0x100006554, symSize: 0x40 }
  - { offsetInCU: 0x1563E, offset: 0x1563E, size: 0x8, addend: 0x0, symName: __ZNSt3__122__compressed_pair_elemINS_9allocatorINS_12basic_stringIcNS_11char_traitsIcEENS1_IcEEEEEELi1ELb1EEC2B7v160006ENS_18__default_init_tagE, symObjAddr: 0x3498, symBinAddr: 0x100006594, symSize: 0x2C }
  - { offsetInCU: 0x15673, offset: 0x15673, size: 0x8, addend: 0x0, symName: __ZNSt3__19allocatorINS_12basic_stringIcNS_11char_traitsIcEENS0_IcEEEEEC2B7v160006Ev, symObjAddr: 0x34C4, symBinAddr: 0x1000065C0, symSize: 0x2C }
  - { offsetInCU: 0x1569D, offset: 0x1569D, size: 0x8, addend: 0x0, symName: __ZNSt3__116__non_trivial_ifILb1ENS_9allocatorINS_12basic_stringIcNS_11char_traitsIcEENS1_IcEEEEEEEC2B7v160006Ev, symObjAddr: 0x34F0, symBinAddr: 0x1000065EC, symSize: 0x14 }
  - { offsetInCU: 0x156C7, offset: 0x156C7, size: 0x8, addend: 0x0, symName: __ZNSt3__16vectorINS_12basic_stringIcNS_11char_traitsIcEENS_9allocatorIcEEEENS4_IS6_EEED2B7v160006Ev, symObjAddr: 0x3504, symBinAddr: 0x100006600, symSize: 0x44 }
  - { offsetInCU: 0x156F1, offset: 0x156F1, size: 0x8, addend: 0x0, symName: __ZNSt3__16vectorINS_12basic_stringIcNS_11char_traitsIcEENS_9allocatorIcEEEENS4_IS6_EEE16__destroy_vectorC1ERS8_, symObjAddr: 0x3548, symBinAddr: 0x100006644, symSize: 0x34 }
  - { offsetInCU: 0x1572A, offset: 0x1572A, size: 0x8, addend: 0x0, symName: __ZNSt3__16vectorINS_12basic_stringIcNS_11char_traitsIcEENS_9allocatorIcEEEENS4_IS6_EEE16__destroy_vectorclB7v160006Ev, symObjAddr: 0x357C, symBinAddr: 0x100006678, symSize: 0x9C }
  - { offsetInCU: 0x15750, offset: 0x15750, size: 0x8, addend: 0x0, symName: __ZNSt3__16vectorINS_12basic_stringIcNS_11char_traitsIcEENS_9allocatorIcEEEENS4_IS6_EEE16__destroy_vectorC2ERS8_, symObjAddr: 0x3618, symBinAddr: 0x100006714, symSize: 0x20 }
  - { offsetInCU: 0x15789, offset: 0x15789, size: 0x8, addend: 0x0, symName: __ZNSt3__16vectorINS_12basic_stringIcNS_11char_traitsIcEENS_9allocatorIcEEEENS4_IS6_EEE7__clearB7v160006Ev, symObjAddr: 0x3648, symBinAddr: 0x100006744, symSize: 0x28 }
  - { offsetInCU: 0x157AF, offset: 0x157AF, size: 0x8, addend: 0x0, symName: __ZNSt3__16vectorINS_12basic_stringIcNS_11char_traitsIcEENS_9allocatorIcEEEENS4_IS6_EEE22__base_destruct_at_endB7v160006EPS6_, symObjAddr: 0x3670, symBinAddr: 0x10000676C, symSize: 0x8C }
  - { offsetInCU: 0x157F3, offset: 0x157F3, size: 0x8, addend: 0x0, symName: __ZNSt3__112basic_stringIcNS_11char_traitsIcEENS_9allocatorIcEEEC2B7v160006IDnEEPKc, symObjAddr: 0x36FC, symBinAddr: 0x1000067F8, symSize: 0x60 }
  - { offsetInCU: 0x15831, offset: 0x15831, size: 0x8, addend: 0x0, symName: __ZNSt3__111char_traitsIcE6lengthEPKc, symObjAddr: 0x375C, symBinAddr: 0x100006858, symSize: 0x34 }
  - { offsetInCU: 0x15854, offset: 0x15854, size: 0x8, addend: 0x0, symName: __ZNSt3__19basic_iosIcNS_11char_traitsIcEEEC2B7v160006Ev, symObjAddr: 0x37B4, symBinAddr: 0x1000068B0, symSize: 0x44 }
  - { offsetInCU: 0x1587E, offset: 0x1587E, size: 0x8, addend: 0x0, symName: __ZNSt3__113basic_istreamIcNS_11char_traitsIcEEEC2B7v160006EPNS_15basic_streambufIcS2_EE, symObjAddr: 0x37F8, symBinAddr: 0x1000068F4, symSize: 0x64 }
  - { offsetInCU: 0x158C3, offset: 0x158C3, size: 0x8, addend: 0x0, symName: __ZNSt3__18ios_baseC2B7v160006Ev, symObjAddr: 0x385C, symBinAddr: 0x100006958, symSize: 0x24 }
  - { offsetInCU: 0x158ED, offset: 0x158ED, size: 0x8, addend: 0x0, symName: __ZNSt3__19basic_iosIcNS_11char_traitsIcEEE4initB7v160006EPNS_15basic_streambufIcS2_EE, symObjAddr: 0x3880, symBinAddr: 0x10000697C, symSize: 0x44 }
  - { offsetInCU: 0x15924, offset: 0x15924, size: 0x8, addend: 0x0, symName: __ZNKSt3__113basic_filebufIcNS_11char_traitsIcEEE7is_openEv, symObjAddr: 0x38C4, symBinAddr: 0x1000069C0, symSize: 0x24 }
  - { offsetInCU: 0x1596A, offset: 0x1596A, size: 0x8, addend: 0x0, symName: __ZNKSt3__113basic_ostreamIcNS_11char_traitsIcEEE6sentrycvbB7v160006Ev, symObjAddr: 0x3AD4, symBinAddr: 0x100006BD0, symSize: 0x1C }
  - { offsetInCU: 0x15990, offset: 0x15990, size: 0x8, addend: 0x0, symName: __ZNSt3__119ostreambuf_iteratorIcNS_11char_traitsIcEEEC1B7v160006ERNS_13basic_ostreamIcS2_EE, symObjAddr: 0x3D30, symBinAddr: 0x100006E2C, symSize: 0x34 }
  - { offsetInCU: 0x159C8, offset: 0x159C8, size: 0x8, addend: 0x0, symName: __ZNKSt3__18ios_base5flagsB7v160006Ev, symObjAddr: 0x3D64, symBinAddr: 0x100006E60, symSize: 0x18 }
  - { offsetInCU: 0x159F0, offset: 0x159F0, size: 0x8, addend: 0x0, symName: __ZNKSt3__19basic_iosIcNS_11char_traitsIcEEE4fillB7v160006Ev, symObjAddr: 0x3D7C, symBinAddr: 0x100006E78, symSize: 0x64 }
  - { offsetInCU: 0x15A18, offset: 0x15A18, size: 0x8, addend: 0x0, symName: __ZNKSt3__119ostreambuf_iteratorIcNS_11char_traitsIcEEE6failedB7v160006Ev, symObjAddr: 0x3DE0, symBinAddr: 0x100006EDC, symSize: 0x24 }
  - { offsetInCU: 0x15A3E, offset: 0x15A3E, size: 0x8, addend: 0x0, symName: __ZNKSt3__18ios_base5widthB7v160006Ev, symObjAddr: 0x3E04, symBinAddr: 0x100006F00, symSize: 0x18 }
  - { offsetInCU: 0x15A66, offset: 0x15A66, size: 0x8, addend: 0x0, symName: __ZNSt3__115basic_streambufIcNS_11char_traitsIcEEE5sputnB7v160006EPKcl, symObjAddr: 0x3E1C, symBinAddr: 0x100006F18, symSize: 0x3C }
  - { offsetInCU: 0x15AA8, offset: 0x15AA8, size: 0x8, addend: 0x0, symName: __ZNSt3__112basic_stringIcNS_11char_traitsIcEENS_9allocatorIcEEEC1B7v160006Emc, symObjAddr: 0x3E58, symBinAddr: 0x100006F54, symSize: 0x3C }
  - { offsetInCU: 0x15AF0, offset: 0x15AF0, size: 0x8, addend: 0x0, symName: __ZNSt3__112basic_stringIcNS_11char_traitsIcEENS_9allocatorIcEEE4dataB7v160006Ev, symObjAddr: 0x3E94, symBinAddr: 0x100006F90, symSize: 0x28 }
  - { offsetInCU: 0x15B16, offset: 0x15B16, size: 0x8, addend: 0x0, symName: __ZNSt3__18ios_base5widthB7v160006El, symObjAddr: 0x3EBC, symBinAddr: 0x100006FB8, symSize: 0x2C }
  - { offsetInCU: 0x15B5C, offset: 0x15B5C, size: 0x8, addend: 0x0, symName: __ZNSt3__112basic_stringIcNS_11char_traitsIcEENS_9allocatorIcEEEC2B7v160006Emc, symObjAddr: 0x3EE8, symBinAddr: 0x100006FE4, symSize: 0x54 }
  - { offsetInCU: 0x15BA4, offset: 0x15BA4, size: 0x8, addend: 0x0, symName: __ZNSt3__112basic_stringIcNS_11char_traitsIcEENS_9allocatorIcEEE13__get_pointerB7v160006Ev, symObjAddr: 0x3F50, symBinAddr: 0x10000704C, symSize: 0x54 }
  - { offsetInCU: 0x15BCA, offset: 0x15BCA, size: 0x8, addend: 0x0, symName: __ZNSt3__119ostreambuf_iteratorIcNS_11char_traitsIcEEEC2B7v160006ERNS_13basic_ostreamIcS2_EE, symObjAddr: 0x3FA4, symBinAddr: 0x1000070A0, symSize: 0x54 }
  - { offsetInCU: 0x15C02, offset: 0x15C02, size: 0x8, addend: 0x0, symName: __ZNKSt3__16vectorINS_12basic_stringIcNS_11char_traitsIcEENS_9allocatorIcEEEENS4_IS6_EEE20__throw_out_of_rangeB7v160006Ev, symObjAddr: 0x3FF8, symBinAddr: 0x1000070F4, symSize: 0x1C }
  - { offsetInCU: 0x15C28, offset: 0x15C28, size: 0x8, addend: 0x0, symName: __ZNSt12out_of_rangeC1B7v160006EPKc, symObjAddr: 0x4078, symBinAddr: 0x100007174, symSize: 0x34 }
  - { offsetInCU: 0x15C60, offset: 0x15C60, size: 0x8, addend: 0x0, symName: __ZNSt12out_of_rangeC2B7v160006EPKc, symObjAddr: 0x40AC, symBinAddr: 0x1000071A8, symSize: 0x4C }
  - { offsetInCU: 0x15C98, offset: 0x15C98, size: 0x8, addend: 0x0, symName: __ZNKSt3__112basic_stringIcNS_11char_traitsIcEENS_9allocatorIcEEE7compareB7v160006ERKS5_, symObjAddr: 0x4130, symBinAddr: 0x10000722C, symSize: 0x4C }
  - { offsetInCU: 0x15CCF, offset: 0x15CCF, size: 0x8, addend: 0x0, symName: __ZNKSt3__112basic_stringIcNS_11char_traitsIcEENS_9allocatorIcEEE7compareINS_17basic_string_viewIcS2_EEEENS_9enable_ifIXsr33__can_be_converted_to_string_viewIcS2_T_EE5valueEiE4typeERKSA_, symObjAddr: 0x417C, symBinAddr: 0x100007278, symSize: 0x12C }
  - { offsetInCU: 0x15D4C, offset: 0x15D4C, size: 0x8, addend: 0x0, symName: __ZNKSt3__112basic_stringIcNS_11char_traitsIcEENS_9allocatorIcEEEcvNS_17basic_string_viewIcS2_EEB7v160006Ev, symObjAddr: 0x42A8, symBinAddr: 0x1000073A4, symSize: 0x50 }
  - { offsetInCU: 0x15D72, offset: 0x15D72, size: 0x8, addend: 0x0, symName: __ZNKSt3__117basic_string_viewIcNS_11char_traitsIcEEE4sizeB7v160006Ev, symObjAddr: 0x42F8, symBinAddr: 0x1000073F4, symSize: 0x18 }
  - { offsetInCU: 0x15D98, offset: 0x15D98, size: 0x8, addend: 0x0, symName: __ZNSt3__111char_traitsIcE7compareEPKcS3_m, symObjAddr: 0x4310, symBinAddr: 0x10000740C, symSize: 0x6C }
  - { offsetInCU: 0x15DD7, offset: 0x15DD7, size: 0x8, addend: 0x0, symName: __ZNKSt3__112basic_stringIcNS_11char_traitsIcEENS_9allocatorIcEEE4dataB7v160006Ev, symObjAddr: 0x437C, symBinAddr: 0x100007478, symSize: 0x28 }
  - { offsetInCU: 0x15DFD, offset: 0x15DFD, size: 0x8, addend: 0x0, symName: __ZNKSt3__117basic_string_viewIcNS_11char_traitsIcEEE4dataB7v160006Ev, symObjAddr: 0x43A4, symBinAddr: 0x1000074A0, symSize: 0x18 }
  - { offsetInCU: 0x15E23, offset: 0x15E23, size: 0x8, addend: 0x0, symName: __ZNKSt3__112basic_stringIcNS_11char_traitsIcEENS_9allocatorIcEEE13__get_pointerB7v160006Ev, symObjAddr: 0x4404, symBinAddr: 0x100007500, symSize: 0x54 }
  - { offsetInCU: 0x15E49, offset: 0x15E49, size: 0x8, addend: 0x0, symName: __ZNKSt3__112basic_stringIcNS_11char_traitsIcEENS_9allocatorIcEEE18__get_long_pointerB7v160006Ev, symObjAddr: 0x4458, symBinAddr: 0x100007554, symSize: 0x28 }
  - { offsetInCU: 0x15E6F, offset: 0x15E6F, size: 0x8, addend: 0x0, symName: __ZNKSt3__112basic_stringIcNS_11char_traitsIcEENS_9allocatorIcEEE19__get_short_pointerB7v160006Ev, symObjAddr: 0x4480, symBinAddr: 0x10000757C, symSize: 0x28 }
  - { offsetInCU: 0x15E95, offset: 0x15E95, size: 0x8, addend: 0x0, symName: __ZNSt3__114pointer_traitsIPKcE10pointer_toB7v160006ERS1_, symObjAddr: 0x44A8, symBinAddr: 0x1000075A4, symSize: 0x14 }
  - { offsetInCU: 0x15EB8, offset: 0x15EB8, size: 0x8, addend: 0x0, symName: __ZNSt3__117basic_string_viewIcNS_11char_traitsIcEEEC1B7v160006EPKcm, symObjAddr: 0x44BC, symBinAddr: 0x1000075B8, symSize: 0x3C }
  - { offsetInCU: 0x15F00, offset: 0x15F00, size: 0x8, addend: 0x0, symName: __ZNSt3__117basic_string_viewIcNS_11char_traitsIcEEEC2B7v160006EPKcm, symObjAddr: 0x44F8, symBinAddr: 0x1000075F4, symSize: 0x50 }
  - { offsetInCU: 0x15F48, offset: 0x15F48, size: 0x8, addend: 0x0, symName: __ZNSt3__16vectorINS_12basic_stringIcNS_11char_traitsIcEENS_9allocatorIcEEEENS4_IS6_EEE11__make_iterB7v160006EPS6_, symObjAddr: 0x4548, symBinAddr: 0x100007644, symSize: 0x34 }
  - { offsetInCU: 0x15F7D, offset: 0x15F7D, size: 0x8, addend: 0x0, symName: __ZNSt3__111__wrap_iterIPNS_12basic_stringIcNS_11char_traitsIcEENS_9allocatorIcEEEEEC1B7v160006EPKvS7_, symObjAddr: 0x457C, symBinAddr: 0x100007678, symSize: 0x3C }
  - { offsetInCU: 0x15FC3, offset: 0x15FC3, size: 0x8, addend: 0x0, symName: __ZNSt3__111__wrap_iterIPNS_12basic_stringIcNS_11char_traitsIcEENS_9allocatorIcEEEEEC2B7v160006EPKvS7_, symObjAddr: 0x45B8, symBinAddr: 0x1000076B4, symSize: 0x24 }
...
