---
triple:          'arm64-apple-darwin'
binary-path:     '/Users/merleth/Documents/CS 235/cs235-assignments/Unit05-Mechanics-of-trees/homework5d-avl/tests'
relocations:
  - { offsetInCU: 0x4BF1, offset: 0x4BF1, size: 0x8, addend: 0x0, symName: __ZNSt3__124__put_character_sequenceB8ue170006IcNS_11char_traitsIcEEEERNS_13basic_ostreamIT_T0_EES7_PKS4_m, symObjAddr: 0x4438, symBinAddr: 0x100006ACC, symSize: 0x1EC }
  - { offsetInCU: 0x6E7C, offset: 0x6E7C, size: 0x8, addend: 0x0, symName: __ZNSt3__1lsB8ue170006INS_11char_traitsIcEEEERNS_13basic_ostreamIcT_EES6_PKc, symObjAddr: 0x158, symBinAddr: 0x1000027EC, symSize: 0x48 }
  - { offsetInCU: 0x6EC2, offset: 0x6EC2, size: 0x8, addend: 0x0, symName: __ZNSt3__1lsB8ue170006INS_11char_traitsIcEEEERNS_13basic_ostreamIcT_EES6_c, symObjAddr: 0x1A0, symBinAddr: 0x100002834, symSize: 0x34 }
  - { offsetInCU: 0x6F08, offset: 0x6F08, size: 0x8, addend: 0x0, symName: __ZNSt3__14endlB8ue170006IcNS_11char_traitsIcEEEERNS_13basic_ostreamIT_T0_EES7_, symObjAddr: 0x200, symBinAddr: 0x100002894, symSize: 0x58 }
  - { offsetInCU: 0x6F48, offset: 0x6F48, size: 0x8, addend: 0x0, symName: __ZNSt3__13maxB8ue170006IiEERKT_S3_S3_, symObjAddr: 0x2DC, symBinAddr: 0x100002970, symSize: 0x2C }
  - { offsetInCU: 0x7196, offset: 0x7196, size: 0x8, addend: 0x0, symName: __ZNSt3__1lsB8ue170006INS_11char_traitsIcEEEERNS_13basic_ostreamIcT_EES6_RKNS_8__iom_t4IcEE, symObjAddr: 0x7E8, symBinAddr: 0x100002E7C, symSize: 0x40 }
  - { offsetInCU: 0x71D9, offset: 0x71D9, size: 0x8, addend: 0x0, symName: __ZNSt3__1lsB8ue170006IcNS_11char_traitsIcEEEERNS_13basic_ostreamIT_T0_EES7_RKNS_8__iom_t6E, symObjAddr: 0x828, symBinAddr: 0x100002EBC, symSize: 0x40 }
  - { offsetInCU: 0x7228, offset: 0x7228, size: 0x8, addend: 0x0, symName: __ZNSt3__14setwB8ue170006Ei, symObjAddr: 0x868, symBinAddr: 0x100002EFC, symSize: 0x2C }
  - { offsetInCU: 0x7256, offset: 0x7256, size: 0x8, addend: 0x0, symName: __ZNSt3__15rightB8ue170006ERNS_8ios_baseE, symObjAddr: 0x8D4, symBinAddr: 0x100002F68, symSize: 0x30 }
  - { offsetInCU: 0x7284, offset: 0x7284, size: 0x8, addend: 0x0, symName: __ZNSt3__17setfillB8ue170006IcEENS_8__iom_t4IT_EES2_, symObjAddr: 0x904, symBinAddr: 0x100002F98, symSize: 0x2C }
  - { offsetInCU: 0x72B9, offset: 0x72B9, size: 0x8, addend: 0x0, symName: __ZNSt3__19boolalphaB8ue170006ERNS_8ios_baseE, symObjAddr: 0xA48, symBinAddr: 0x1000030DC, symSize: 0x2C }
  - { offsetInCU: 0x72E7, offset: 0x72E7, size: 0x8, addend: 0x0, symName: __ZNSt3__13maxB8ue170006IiNS_6__lessIvvEEEERKT_S5_S5_T0_, symObjAddr: 0x2D24, symBinAddr: 0x1000053B8, symSize: 0x54 }
  - { offsetInCU: 0x73B7, offset: 0x73B7, size: 0x8, addend: 0x0, symName: __ZNSt3__1neB8ue170006ERKNS_16__deque_iteratorIPKN3AVLIiE4NodeEPS5_RS5_PS6_lLl512EEESB_, symObjAddr: 0x3428, symBinAddr: 0x100005ABC, symSize: 0x34 }
  - { offsetInCU: 0x73F4, offset: 0x73F4, size: 0x8, addend: 0x0, symName: __ZNSt3__1eqB8ue170006ERKNS_16__deque_iteratorIPKN3AVLIiE4NodeEPS5_RS5_PS6_lLl512EEESB_, symObjAddr: 0x3780, symBinAddr: 0x100005E14, symSize: 0x30 }
  - { offsetInCU: 0x7431, offset: 0x7431, size: 0x8, addend: 0x0, symName: __ZNSt3__112__to_addressB8ue170006IPKN3AVLIiE4NodeEEEPT_S7_, symObjAddr: 0x3E10, symBinAddr: 0x1000064A4, symSize: 0x14 }
  - { offsetInCU: 0x7466, offset: 0x7466, size: 0x8, addend: 0x0, symName: __ZNSt3__119__libcpp_deallocateB8ue170006EPvmm, symObjAddr: 0x3F7C, symBinAddr: 0x100006610, symSize: 0x60 }
  - { offsetInCU: 0x74CB, offset: 0x74CB, size: 0x8, addend: 0x0, symName: __ZNSt3__124__is_overaligned_for_newB8ue170006Em, symObjAddr: 0x3FDC, symBinAddr: 0x100006670, symSize: 0x20 }
  - { offsetInCU: 0x74F9, offset: 0x74F9, size: 0x8, addend: 0x0, symName: __ZNSt3__127__do_deallocate_handle_sizeB8ue170006IJSt11align_val_tEEEvPvmDpT_, symObjAddr: 0x3FFC, symBinAddr: 0x100006690, symSize: 0x30 }
  - { offsetInCU: 0x754C, offset: 0x754C, size: 0x8, addend: 0x0, symName: __ZNSt3__127__do_deallocate_handle_sizeB8ue170006IJEEEvPvmDpT_, symObjAddr: 0x402C, symBinAddr: 0x1000066C0, symSize: 0x28 }
  - { offsetInCU: 0x758A, offset: 0x758A, size: 0x8, addend: 0x0, symName: __ZNSt3__124__libcpp_operator_deleteB8ue170006IJPvSt11align_val_tEEEvDpT_, symObjAddr: 0x4054, symBinAddr: 0x1000066E8, symSize: 0x2C }
  - { offsetInCU: 0x75D3, offset: 0x75D3, size: 0x8, addend: 0x0, symName: __ZNSt3__124__libcpp_operator_deleteB8ue170006IJPvEEEvDpT_, symObjAddr: 0x4080, symBinAddr: 0x100006714, symSize: 0x24 }
  - { offsetInCU: 0x7608, offset: 0x7608, size: 0x8, addend: 0x0, symName: __ZNSt3__112__to_addressB8ue170006IPPKN3AVLIiE4NodeEEEPT_S8_, symObjAddr: 0x4304, symBinAddr: 0x100006998, symSize: 0x14 }
  - { offsetInCU: 0x763D, offset: 0x763D, size: 0x8, addend: 0x0, symName: __ZNSt3__116__pad_and_outputB8ue170006IcNS_11char_traitsIcEEEENS_19ostreambuf_iteratorIT_T0_EES6_PKS4_S8_S8_RNS_8ios_baseES4_, symObjAddr: 0x4640, symBinAddr: 0x100006CD4, symSize: 0x240 }
  - { offsetInCU: 0x770C, offset: 0x770C, size: 0x8, addend: 0x0, symName: __ZNSt3__112__to_addressB8ue170006IcEEPT_S2_, symObjAddr: 0x4BA8, symBinAddr: 0x10000723C, symSize: 0x14 }
  - { offsetInCU: 0x7774, offset: 0x7774, size: 0x8, addend: 0x0, symName: __ZNSt3__19use_facetB8ue170006INS_5ctypeIcEEEERKT_RKNS_6localeE, symObjAddr: 0x4E60, symBinAddr: 0x1000074F4, symSize: 0x2C }
  - { offsetInCU: 0x7C41, offset: 0x7C41, size: 0x8, addend: 0x0, symName: __ZNSt3__118__constexpr_strlenB8ue170006EPKc, symObjAddr: 0x4F2C, symBinAddr: 0x1000075C0, symSize: 0x24 }
  - { offsetInCU: 0x7C6D, offset: 0x7C6D, size: 0x8, addend: 0x0, symName: __ZNSt3__13maxB8ue170006ImEERKT_S3_S3_, symObjAddr: 0x5F8C, symBinAddr: 0x100008620, symSize: 0x2C }
  - { offsetInCU: 0x8109, offset: 0x8109, size: 0x8, addend: 0x0, symName: __ZNSt3__14swapB8ue170006IPPPKN3AVLIiE4NodeEEENS_9enable_ifIXaasr21is_move_constructibleIT_EE5valuesr18is_move_assignableIS9_EE5valueEvE4typeERS9_SC_, symObjAddr: 0x659C, symBinAddr: 0x100008C30, symSize: 0x3C }
  - { offsetInCU: 0x815A, offset: 0x815A, size: 0x8, addend: 0x0, symName: __ZNSt3__14moveB8ue170006IPPPKN3AVLIiE4NodeES7_EET0_T_S9_S8_, symObjAddr: 0x6680, symBinAddr: 0x100008D14, symSize: 0x40 }
  - { offsetInCU: 0x81D0, offset: 0x81D0, size: 0x8, addend: 0x0, symName: __ZNSt3__16__moveB8ue170006INS_17_ClassicAlgPolicyEPPPKN3AVLIiE4NodeES8_S8_EENS_4pairIT0_T2_EESA_T1_SB_, symObjAddr: 0x6788, symBinAddr: 0x100008E1C, symSize: 0x44 }
  - { offsetInCU: 0x823C, offset: 0x823C, size: 0x8, addend: 0x0, symName: __ZNSt3__123__dispatch_copy_or_moveB8ue170006INS_17_ClassicAlgPolicyENS_11__move_loopIS1_EENS_14__move_trivialEPPPKN3AVLIiE4NodeESB_SB_EENS_4pairIT2_T4_EESD_T3_SE_, symObjAddr: 0x67CC, symBinAddr: 0x100008E60, symSize: 0x44 }
  - { offsetInCU: 0x82BA, offset: 0x82BA, size: 0x8, addend: 0x0, symName: __ZNSt3__121__unwrap_and_dispatchB8ue170006INS_10__overloadINS_11__move_loopINS_17_ClassicAlgPolicyEEENS_14__move_trivialEEEPPPKN3AVLIiE4NodeESD_SD_Li0EEENS_4pairIT0_T2_EESF_T1_SG_, symObjAddr: 0x6810, symBinAddr: 0x100008EA4, symSize: 0xB4 }
  - { offsetInCU: 0x8348, offset: 0x8348, size: 0x8, addend: 0x0, symName: __ZNSt3__114__unwrap_rangeB8ue170006IPPPKN3AVLIiE4NodeES7_EENS_4pairIT0_S9_EET_SB_, symObjAddr: 0x68C4, symBinAddr: 0x100008F58, symSize: 0x60 }
  - { offsetInCU: 0x850C, offset: 0x850C, size: 0x8, addend: 0x0, symName: __ZNSt3__113__unwrap_iterB8ue170006IPPPKN3AVLIiE4NodeENS_18__unwrap_iter_implIS7_Lb1EEELi0EEEDTclsrT0_8__unwrapclsr3stdE7declvalIT_EEEESB_, symObjAddr: 0x696C, symBinAddr: 0x100009000, symSize: 0x24 }
  - { offsetInCU: 0x8550, offset: 0x8550, size: 0x8, addend: 0x0, symName: __ZNSt3__19make_pairB8ue170006IPPPKN3AVLIiE4NodeES7_EENS_4pairINS_18__unwrap_ref_decayIT_E4typeENS9_IT0_E4typeEEEOSA_OSD_, symObjAddr: 0x6990, symBinAddr: 0x100009024, symSize: 0x38 }
  - { offsetInCU: 0x859F, offset: 0x859F, size: 0x8, addend: 0x0, symName: __ZNSt3__114__rewrap_rangeB8ue170006IPPPKN3AVLIiE4NodeES7_EET_S8_T0_, symObjAddr: 0x69C8, symBinAddr: 0x10000905C, symSize: 0x2C }
  - { offsetInCU: 0x85EB, offset: 0x85EB, size: 0x8, addend: 0x0, symName: __ZNSt3__113__rewrap_iterB8ue170006IPPPKN3AVLIiE4NodeES7_NS_18__unwrap_iter_implIS7_Lb1EEEEET_SA_T0_, symObjAddr: 0x69F4, symBinAddr: 0x100009088, symSize: 0x3C }
  - { offsetInCU: 0x8640, offset: 0x8640, size: 0x8, addend: 0x0, symName: __ZNSt3__119__copy_trivial_implB8ue170006IPPKN3AVLIiE4NodeES6_EENS_4pairIPT_PT0_EES9_S9_SB_, symObjAddr: 0x6A30, symBinAddr: 0x1000090C4, symSize: 0x80 }
  - { offsetInCU: 0x86A8, offset: 0x86A8, size: 0x8, addend: 0x0, symName: __ZNSt3__119__constexpr_memmoveB8ue170006IPPKN3AVLIiE4NodeES6_Li0EEEPT_S8_PT0_NS_15__element_countE, symObjAddr: 0x6AB0, symBinAddr: 0x100009144, symSize: 0x64 }
  - { offsetInCU: 0x8716, offset: 0x8716, size: 0x8, addend: 0x0, symName: __ZNSt3__19make_pairB8ue170006IRPPPKN3AVLIiE4NodeES7_EENS_4pairINS_18__unwrap_ref_decayIT_E4typeENSA_IT0_E4typeEEEOSB_OSE_, symObjAddr: 0x6B14, symBinAddr: 0x1000091A8, symSize: 0x38 }
  - { offsetInCU: 0x87B8, offset: 0x87B8, size: 0x8, addend: 0x0, symName: __ZNSt3__18distanceB8ue170006INS_13move_iteratorIPPPKN3AVLIiE4NodeEEEEENS_15iterator_traitsIT_E15difference_typeESB_SB_, symObjAddr: 0x6D7C, symBinAddr: 0x100009410, symSize: 0x3C }
  - { offsetInCU: 0x87FB, offset: 0x87FB, size: 0x8, addend: 0x0, symName: __ZNSt3__110__distanceB8ue170006INS_13move_iteratorIPPPKN3AVLIiE4NodeEEEEENS_15iterator_traitsIT_E15difference_typeESB_SB_NS_26random_access_iterator_tagE, symObjAddr: 0x6F80, symBinAddr: 0x100009614, symSize: 0x30 }
  - { offsetInCU: 0x8848, offset: 0x8848, size: 0x8, addend: 0x0, symName: __ZNSt3__1miB8ue170006IPPPKN3AVLIiE4NodeES7_EEDTmicldtfp_4baseEcldtfp0_4baseEERKNS_13move_iteratorIT_EERKNS9_IT0_EE, symObjAddr: 0x6FB0, symBinAddr: 0x100009644, symSize: 0x48 }
  - { offsetInCU: 0x8897, offset: 0x8897, size: 0x8, addend: 0x0, symName: __ZNSt3__117__libcpp_allocateB8ue170006Emm, symObjAddr: 0x7108, symBinAddr: 0x10000979C, symSize: 0x60 }
  - { offsetInCU: 0x88F1, offset: 0x88F1, size: 0x8, addend: 0x0, symName: __ZNSt3__121__libcpp_operator_newB8ue170006IJmSt11align_val_tEEEPvDpT_, symObjAddr: 0x717C, symBinAddr: 0x100009810, symSize: 0x2C }
  - { offsetInCU: 0x893E, offset: 0x893E, size: 0x8, addend: 0x0, symName: __ZNSt3__121__libcpp_operator_newB8ue170006IJmEEEPvDpT_, symObjAddr: 0x71A8, symBinAddr: 0x10000983C, symSize: 0x24 }
  - { offsetInCU: 0x8977, offset: 0x8977, size: 0x8, addend: 0x0, symName: __ZNSt3__113move_backwardB8ue170006IPPPKN3AVLIiE4NodeES7_EET0_T_S9_S8_, symObjAddr: 0x71CC, symBinAddr: 0x100009860, symSize: 0x40 }
  - { offsetInCU: 0x89D1, offset: 0x89D1, size: 0x8, addend: 0x0, symName: __ZNSt3__115__move_backwardB8ue170006INS_17_ClassicAlgPolicyEPPPKN3AVLIiE4NodeES8_S8_EENS_4pairIT0_T2_EESA_T1_SB_, symObjAddr: 0x720C, symBinAddr: 0x1000098A0, symSize: 0x44 }
  - { offsetInCU: 0x8A3D, offset: 0x8A3D, size: 0x8, addend: 0x0, symName: __ZNSt3__123__dispatch_copy_or_moveB8ue170006INS_17_ClassicAlgPolicyENS_20__move_backward_loopIS1_EENS_23__move_backward_trivialEPPPKN3AVLIiE4NodeESB_SB_EENS_4pairIT2_T4_EESD_T3_SE_, symObjAddr: 0x7250, symBinAddr: 0x1000098E4, symSize: 0x44 }
  - { offsetInCU: 0x8ABB, offset: 0x8ABB, size: 0x8, addend: 0x0, symName: __ZNSt3__121__unwrap_and_dispatchB8ue170006INS_10__overloadINS_20__move_backward_loopINS_17_ClassicAlgPolicyEEENS_23__move_backward_trivialEEEPPPKN3AVLIiE4NodeESD_SD_Li0EEENS_4pairIT0_T2_EESF_T1_SG_, symObjAddr: 0x7294, symBinAddr: 0x100009928, symSize: 0xB4 }
  - { offsetInCU: 0x8B8F, offset: 0x8B8F, size: 0x8, addend: 0x0, symName: __ZNSt3__128__copy_backward_trivial_implB8ue170006IPPKN3AVLIiE4NodeES6_EENS_4pairIPT_PT0_EES9_S9_SB_, symObjAddr: 0x7390, symBinAddr: 0x100009A24, symSize: 0x90 }
  - { offsetInCU: 0x8BF7, offset: 0x8BF7, size: 0x8, addend: 0x0, symName: __ZNSt3__19make_pairB8ue170006IRPPPKN3AVLIiE4NodeES8_EENS_4pairINS_18__unwrap_ref_decayIT_E4typeENSA_IT0_E4typeEEEOSB_OSE_, symObjAddr: 0x7420, symBinAddr: 0x100009AB4, symSize: 0x38 }
  - { offsetInCU: 0x8C46, offset: 0x8C46, size: 0x8, addend: 0x0, symName: __ZNSt3__13maxB8ue170006ImNS_6__lessIvvEEEERKT_S5_S5_T0_, symObjAddr: 0x74C8, symBinAddr: 0x100009B5C, symSize: 0x54 }
  - { offsetInCU: 0x8CA0, offset: 0x8CA0, size: 0x8, addend: 0x0, symName: __ZNSt3__119__allocate_at_leastB8ue170006INS_9allocatorIPPKN3AVLIiE4NodeEEEEENS_19__allocation_resultINS_16allocator_traitsIT_E7pointerEEERSB_m, symObjAddr: 0x7660, symBinAddr: 0x100009CF4, symSize: 0x40 }
  - { offsetInCU: 0x8E9B, offset: 0x8E9B, size: 0x8, addend: 0x0, symName: __ZSt28__throw_bad_array_new_lengthB8ue170006v, symObjAddr: 0x70D4, symBinAddr: 0x100009768, symSize: 0x34 }
  - { offsetInCU: 0xBA3A, offset: 0xBA3A, size: 0x8, addend: 0x0, symName: __Z22ugly_print_tree_helperPKN3AVLIiE4NodeE, symObjAddr: 0x0, symBinAddr: 0x100002694, symSize: 0x158 }
  - { offsetInCU: 0xBA7F, offset: 0xBA7F, size: 0x8, addend: 0x0, symName: __ZNSt3__113basic_ostreamIcNS_11char_traitsIcEEElsB8ue170006EPFRS3_S4_E, symObjAddr: 0x1D4, symBinAddr: 0x100002868, symSize: 0x2C }
  - { offsetInCU: 0xBAB2, offset: 0xBAB2, size: 0x8, addend: 0x0, symName: __Z11tree_heightPKN3AVLIiE4NodeE, symObjAddr: 0x258, symBinAddr: 0x1000028EC, symSize: 0x84 }
  - { offsetInCU: 0xBADF, offset: 0xBADF, size: 0x8, addend: 0x0, symName: __Z12print_spacesi, symObjAddr: 0x308, symBinAddr: 0x10000299C, symSize: 0x60 }
  - { offsetInCU: 0xBB24, offset: 0xBB24, size: 0x8, addend: 0x0, symName: __Z17pretty_print_treeRK3AVLIiE, symObjAddr: 0x368, symBinAddr: 0x1000029FC, symSize: 0x350 }
  - { offsetInCU: 0xBBFA, offset: 0xBBFA, size: 0x8, addend: 0x0, symName: __ZNK3AVLIiE11getRootNodeEv, symObjAddr: 0x6B8, symBinAddr: 0x100002D4C, symSize: 0x18 }
  - { offsetInCU: 0xBC5C, offset: 0xBC5C, size: 0x8, addend: 0x0, symName: __ZNSt3__15queueIPKN3AVLIiE4NodeENS_5dequeIS5_NS_9allocatorIS5_EEEEEC1B8ue170006Ev, symObjAddr: 0x6D0, symBinAddr: 0x100002D64, symSize: 0x2C }
  - { offsetInCU: 0xBC86, offset: 0xBC86, size: 0x8, addend: 0x0, symName: __ZNSt3__15queueIPKN3AVLIiE4NodeENS_5dequeIS5_NS_9allocatorIS5_EEEEE4pushB8ue170006ERKS5_, symObjAddr: 0x6FC, symBinAddr: 0x100002D90, symSize: 0x2C }
  - { offsetInCU: 0xBCBA, offset: 0xBCBA, size: 0x8, addend: 0x0, symName: __Z20num_spaces_for_levelii, symObjAddr: 0x728, symBinAddr: 0x100002DBC, symSize: 0x30 }
  - { offsetInCU: 0xBCF4, offset: 0xBCF4, size: 0x8, addend: 0x0, symName: __Z18num_nodes_in_leveli, symObjAddr: 0x758, symBinAddr: 0x100002DEC, symSize: 0x1C }
  - { offsetInCU: 0xBD21, offset: 0xBD21, size: 0x8, addend: 0x0, symName: __ZNSt3__15queueIPKN3AVLIiE4NodeENS_5dequeIS5_NS_9allocatorIS5_EEEEE5frontB8ue170006Ev, symObjAddr: 0x774, symBinAddr: 0x100002E08, symSize: 0x24 }
  - { offsetInCU: 0xBD47, offset: 0xBD47, size: 0x8, addend: 0x0, symName: __ZNSt3__15queueIPKN3AVLIiE4NodeENS_5dequeIS5_NS_9allocatorIS5_EEEEE3popB8ue170006Ev, symObjAddr: 0x798, symBinAddr: 0x100002E2C, symSize: 0x24 }
  - { offsetInCU: 0xBD6D, offset: 0xBD6D, size: 0x8, addend: 0x0, symName: __ZNSt3__15queueIPKN3AVLIiE4NodeENS_5dequeIS5_NS_9allocatorIS5_EEEEE4pushB8ue170006EOS5_, symObjAddr: 0x7BC, symBinAddr: 0x100002E50, symSize: 0x2C }
  - { offsetInCU: 0xBDA2, offset: 0xBDA2, size: 0x8, addend: 0x0, symName: __ZNSt3__113basic_ostreamIcNS_11char_traitsIcEEElsB8ue170006EPFRNS_8ios_baseES5_E, symObjAddr: 0x894, symBinAddr: 0x100002F28, symSize: 0x40 }
  - { offsetInCU: 0xBDD6, offset: 0xBDD6, size: 0x8, addend: 0x0, symName: __ZNSt3__15queueIPKN3AVLIiE4NodeENS_5dequeIS5_NS_9allocatorIS5_EEEEED1Ev, symObjAddr: 0x930, symBinAddr: 0x100002FC4, symSize: 0x2C }
  - { offsetInCU: 0xBE03, offset: 0xBE03, size: 0x8, addend: 0x0, symName: __Z15ugly_print_treeRK3AVLIiE, symObjAddr: 0x95C, symBinAddr: 0x100002FF0, symSize: 0x6C }
  - { offsetInCU: 0xBE3A, offset: 0xBE3A, size: 0x8, addend: 0x0, symName: __Z12noisy_insertR3AVLIiEi, symObjAddr: 0x9C8, symBinAddr: 0x10000305C, symSize: 0x80 }
  - { offsetInCU: 0xBE71, offset: 0xBE71, size: 0x8, addend: 0x0, symName: __ZN3AVLIiE6insertEi, symObjAddr: 0xA74, symBinAddr: 0x100003108, symSize: 0x38 }
  - { offsetInCU: 0xBEA5, offset: 0xBEA5, size: 0x8, addend: 0x0, symName: __Z12noisy_removeR3AVLIiEi, symObjAddr: 0xAAC, symBinAddr: 0x100003140, symSize: 0x80 }
  - { offsetInCU: 0xBEDC, offset: 0xBEDC, size: 0x8, addend: 0x0, symName: __ZN3AVLIiE6removeEi, symObjAddr: 0xB2C, symBinAddr: 0x1000031C0, symSize: 0x38 }
  - { offsetInCU: 0xBF10, offset: 0xBF10, size: 0x8, addend: 0x0, symName: __Z21check_and_remove_headR3AVLIiE, symObjAddr: 0xB64, symBinAddr: 0x1000031F8, symSize: 0x8C }
  - { offsetInCU: 0xBF39, offset: 0xBF39, size: 0x8, addend: 0x0, symName: __Z14noisy_containsRK3AVLIiEi, symObjAddr: 0xBF0, symBinAddr: 0x100003284, symSize: 0x80 }
  - { offsetInCU: 0xBF70, offset: 0xBF70, size: 0x8, addend: 0x0, symName: __ZNK3AVLIiE8containsEi, symObjAddr: 0xC70, symBinAddr: 0x100003304, symSize: 0x34 }
  - { offsetInCU: 0xBFA4, offset: 0xBFA4, size: 0x8, addend: 0x0, symName: __Z11noisy_clearR3AVLIiE, symObjAddr: 0xCA4, symBinAddr: 0x100003338, symSize: 0x44 }
  - { offsetInCU: 0xBFCD, offset: 0xBFCD, size: 0x8, addend: 0x0, symName: __ZN3AVLIiE5clearEv, symObjAddr: 0xCE8, symBinAddr: 0x10000337C, symSize: 0x3C }
  - { offsetInCU: 0xBFF3, offset: 0xBFF3, size: 0x8, addend: 0x0, symName: __Z10noisy_sizeRK3AVLIiE, symObjAddr: 0xD24, symBinAddr: 0x1000033B8, symSize: 0x54 }
  - { offsetInCU: 0xC01C, offset: 0xC01C, size: 0x8, addend: 0x0, symName: __ZNK3AVLIiE4sizeEv, symObjAddr: 0xD78, symBinAddr: 0x10000340C, symSize: 0x1C }
  - { offsetInCU: 0xC042, offset: 0xC042, size: 0x8, addend: 0x0, symName: __Z5test1v, symObjAddr: 0xD94, symBinAddr: 0x100003428, symSize: 0x128 }
  - { offsetInCU: 0xC06B, offset: 0xC06B, size: 0x8, addend: 0x0, symName: __ZN3AVLIiEC1Ev, symObjAddr: 0xEBC, symBinAddr: 0x100003550, symSize: 0x2C }
  - { offsetInCU: 0xC095, offset: 0xC095, size: 0x8, addend: 0x0, symName: __ZN3AVLIiED1Ev, symObjAddr: 0xEE8, symBinAddr: 0x10000357C, symSize: 0x2C }
  - { offsetInCU: 0xC0BF, offset: 0xC0BF, size: 0x8, addend: 0x0, symName: __Z5test2v, symObjAddr: 0xF14, symBinAddr: 0x1000035A8, symSize: 0x128 }
  - { offsetInCU: 0xC0E8, offset: 0xC0E8, size: 0x8, addend: 0x0, symName: __Z5test3v, symObjAddr: 0x103C, symBinAddr: 0x1000036D0, symSize: 0x100 }
  - { offsetInCU: 0xC111, offset: 0xC111, size: 0x8, addend: 0x0, symName: __Z5test4v, symObjAddr: 0x113C, symBinAddr: 0x1000037D0, symSize: 0x100 }
  - { offsetInCU: 0xC13A, offset: 0xC13A, size: 0x8, addend: 0x0, symName: __Z5test5v, symObjAddr: 0x123C, symBinAddr: 0x1000038D0, symSize: 0x100 }
  - { offsetInCU: 0xC163, offset: 0xC163, size: 0x8, addend: 0x0, symName: __Z5test6v, symObjAddr: 0x133C, symBinAddr: 0x1000039D0, symSize: 0x100 }
  - { offsetInCU: 0xC18C, offset: 0xC18C, size: 0x8, addend: 0x0, symName: __Z5test7v, symObjAddr: 0x143C, symBinAddr: 0x100003AD0, symSize: 0x170 }
  - { offsetInCU: 0xC1B5, offset: 0xC1B5, size: 0x8, addend: 0x0, symName: __Z5test8v, symObjAddr: 0x15AC, symBinAddr: 0x100003C40, symSize: 0x170 }
  - { offsetInCU: 0xC1DE, offset: 0xC1DE, size: 0x8, addend: 0x0, symName: __Z5test9v, symObjAddr: 0x171C, symBinAddr: 0x100003DB0, symSize: 0x170 }
  - { offsetInCU: 0xC207, offset: 0xC207, size: 0x8, addend: 0x0, symName: __Z6test10v, symObjAddr: 0x188C, symBinAddr: 0x100003F20, symSize: 0x170 }
  - { offsetInCU: 0xC230, offset: 0xC230, size: 0x8, addend: 0x0, symName: __Z6test11v, symObjAddr: 0x19FC, symBinAddr: 0x100004090, symSize: 0x200 }
  - { offsetInCU: 0xC259, offset: 0xC259, size: 0x8, addend: 0x0, symName: __Z6test12v, symObjAddr: 0x1BFC, symBinAddr: 0x100004290, symSize: 0x140 }
  - { offsetInCU: 0xC283, offset: 0xC283, size: 0x8, addend: 0x0, symName: __Z6test13v, symObjAddr: 0x1D3C, symBinAddr: 0x1000043D0, symSize: 0x140 }
  - { offsetInCU: 0xC2AD, offset: 0xC2AD, size: 0x8, addend: 0x0, symName: __Z6test14v, symObjAddr: 0x1E7C, symBinAddr: 0x100004510, symSize: 0x140 }
  - { offsetInCU: 0xC2D7, offset: 0xC2D7, size: 0x8, addend: 0x0, symName: __Z6test15v, symObjAddr: 0x1FBC, symBinAddr: 0x100004650, symSize: 0x140 }
  - { offsetInCU: 0xC301, offset: 0xC301, size: 0x8, addend: 0x0, symName: __Z6test16v, symObjAddr: 0x20FC, symBinAddr: 0x100004790, symSize: 0x294 }
  - { offsetInCU: 0xC32B, offset: 0xC32B, size: 0x8, addend: 0x0, symName: __Z6test17v, symObjAddr: 0x2390, symBinAddr: 0x100004A24, symSize: 0x174 }
  - { offsetInCU: 0xC355, offset: 0xC355, size: 0x8, addend: 0x0, symName: __Z6test18v, symObjAddr: 0x2504, symBinAddr: 0x100004B98, symSize: 0x218 }
  - { offsetInCU: 0xC380, offset: 0xC380, size: 0x8, addend: 0x0, symName: _main, symObjAddr: 0x271C, symBinAddr: 0x100004DB0, symSize: 0x608 }
  - { offsetInCU: 0xC3E6, offset: 0xC3E6, size: 0x8, addend: 0x0, symName: __ZNKSt3__16__lessIvvEclB8ue170006IiiEEbRKT_RKT0_, symObjAddr: 0x2D78, symBinAddr: 0x10000540C, symSize: 0x34 }
  - { offsetInCU: 0xC43A, offset: 0xC43A, size: 0x8, addend: 0x0, symName: __ZNSt3__18__iom_t6C1B8ue170006Ei, symObjAddr: 0x2DAC, symBinAddr: 0x100005440, symSize: 0x34 }
  - { offsetInCU: 0xC472, offset: 0xC472, size: 0x8, addend: 0x0, symName: __ZNSt3__18__iom_t6C2B8ue170006Ei, symObjAddr: 0x2DE0, symBinAddr: 0x100005474, symSize: 0x20 }
  - { offsetInCU: 0xC4AA, offset: 0xC4AA, size: 0x8, addend: 0x0, symName: __ZNSt3__18ios_base4setfB8ue170006Ejj, symObjAddr: 0x2E00, symBinAddr: 0x100005494, symSize: 0x5C }
  - { offsetInCU: 0xC4FF, offset: 0xC4FF, size: 0x8, addend: 0x0, symName: __ZNSt3__18ios_base6unsetfB8ue170006Ej, symObjAddr: 0x2E5C, symBinAddr: 0x1000054F0, symSize: 0x28 }
  - { offsetInCU: 0xC536, offset: 0xC536, size: 0x8, addend: 0x0, symName: __ZNSt3__15queueIPKN3AVLIiE4NodeENS_5dequeIS5_NS_9allocatorIS5_EEEEED2Ev, symObjAddr: 0x2E84, symBinAddr: 0x100005518, symSize: 0x2C }
  - { offsetInCU: 0xC563, offset: 0xC563, size: 0x8, addend: 0x0, symName: __ZNSt3__15dequeIPKN3AVLIiE4NodeENS_9allocatorIS5_EEED1B8ue170006Ev, symObjAddr: 0x2EB0, symBinAddr: 0x100005544, symSize: 0x2C }
  - { offsetInCU: 0xC58D, offset: 0xC58D, size: 0x8, addend: 0x0, symName: __ZNSt3__15dequeIPKN3AVLIiE4NodeENS_9allocatorIS5_EEED2B8ue170006Ev, symObjAddr: 0x2EDC, symBinAddr: 0x100005570, symSize: 0xA4 }
  - { offsetInCU: 0xC5E3, offset: 0xC5E3, size: 0x8, addend: 0x0, symName: __ZNSt3__15dequeIPKN3AVLIiE4NodeENS_9allocatorIS5_EEE5clearEv, symObjAddr: 0x2F80, symBinAddr: 0x100005614, symSize: 0x194 }
  - { offsetInCU: 0xC63E, offset: 0xC63E, size: 0x8, addend: 0x0, symName: __ZNKSt3__15dequeIPKN3AVLIiE4NodeENS_9allocatorIS5_EEE17__annotate_deleteB8ue170006Ev, symObjAddr: 0x3114, symBinAddr: 0x1000057A8, symSize: 0xE8 }
  - { offsetInCU: 0xC681, offset: 0xC681, size: 0x8, addend: 0x0, symName: __ZNSt3__114__split_bufferIPPKN3AVLIiE4NodeENS_9allocatorIS6_EEE5beginB8ue170006Ev, symObjAddr: 0x31FC, symBinAddr: 0x100005890, symSize: 0x18 }
  - { offsetInCU: 0xC6A7, offset: 0xC6A7, size: 0x8, addend: 0x0, symName: __ZNSt3__114__split_bufferIPPKN3AVLIiE4NodeENS_9allocatorIS6_EEE3endB8ue170006Ev, symObjAddr: 0x3214, symBinAddr: 0x1000058A8, symSize: 0x18 }
  - { offsetInCU: 0xC6CD, offset: 0xC6CD, size: 0x8, addend: 0x0, symName: __ZNSt3__116allocator_traitsINS_9allocatorIPKN3AVLIiE4NodeEEEE10deallocateB8ue170006ERS7_PS6_m, symObjAddr: 0x322C, symBinAddr: 0x1000058C0, symSize: 0x34 }
  - { offsetInCU: 0xC70F, offset: 0xC70F, size: 0x8, addend: 0x0, symName: __ZNSt3__15dequeIPKN3AVLIiE4NodeENS_9allocatorIS5_EEE7__allocB8ue170006Ev, symObjAddr: 0x3260, symBinAddr: 0x1000058F4, symSize: 0x28 }
  - { offsetInCU: 0xC735, offset: 0xC735, size: 0x8, addend: 0x0, symName: __ZNSt3__114__split_bufferIPPKN3AVLIiE4NodeENS_9allocatorIS6_EEED1Ev, symObjAddr: 0x3288, symBinAddr: 0x10000591C, symSize: 0x2C }
  - { offsetInCU: 0xC761, offset: 0xC761, size: 0x8, addend: 0x0, symName: __ZNSt3__15dequeIPKN3AVLIiE4NodeENS_9allocatorIS5_EEE5beginB8ue170006Ev, symObjAddr: 0x32B4, symBinAddr: 0x100005948, symSize: 0xB8 }
  - { offsetInCU: 0xC796, offset: 0xC796, size: 0x8, addend: 0x0, symName: __ZNSt3__15dequeIPKN3AVLIiE4NodeENS_9allocatorIS5_EEE3endB8ue170006Ev, symObjAddr: 0x336C, symBinAddr: 0x100005A00, symSize: 0xBC }
  - { offsetInCU: 0xC7DA, offset: 0xC7DA, size: 0x8, addend: 0x0, symName: __ZNSt3__116allocator_traitsINS_9allocatorIPKN3AVLIiE4NodeEEEE7destroyB8ue170006IS6_vEEvRS7_PT_, symObjAddr: 0x3468, symBinAddr: 0x100005AFC, symSize: 0x2C }
  - { offsetInCU: 0xC817, offset: 0xC817, size: 0x8, addend: 0x0, symName: __ZNKSt3__116__deque_iteratorIPKN3AVLIiE4NodeEPS5_RS5_PS6_lLl512EEdeB8ue170006Ev, symObjAddr: 0x3494, symBinAddr: 0x100005B28, symSize: 0x18 }
  - { offsetInCU: 0xC83D, offset: 0xC83D, size: 0x8, addend: 0x0, symName: __ZNSt3__116__deque_iteratorIPKN3AVLIiE4NodeEPS5_RS5_PS6_lLl512EEppB8ue170006Ev, symObjAddr: 0x34AC, symBinAddr: 0x100005B40, symSize: 0x70 }
  - { offsetInCU: 0xC863, offset: 0xC863, size: 0x8, addend: 0x0, symName: __ZNSt3__15dequeIPKN3AVLIiE4NodeENS_9allocatorIS5_EEE6__sizeB8ue170006Ev, symObjAddr: 0x351C, symBinAddr: 0x100005BB0, symSize: 0x28 }
  - { offsetInCU: 0xC889, offset: 0xC889, size: 0x8, addend: 0x0, symName: __ZNKSt3__114__split_bufferIPPKN3AVLIiE4NodeENS_9allocatorIS6_EEE4sizeB8ue170006Ev, symObjAddr: 0x3544, symBinAddr: 0x100005BD8, symSize: 0x28 }
  - { offsetInCU: 0xC8AF, offset: 0xC8AF, size: 0x8, addend: 0x0, symName: __ZNSt3__114__split_bufferIPPKN3AVLIiE4NodeENS_9allocatorIS6_EEE5frontB8ue170006Ev, symObjAddr: 0x356C, symBinAddr: 0x100005C00, symSize: 0x18 }
  - { offsetInCU: 0xC8D5, offset: 0xC8D5, size: 0x8, addend: 0x0, symName: __ZNSt3__114__split_bufferIPPKN3AVLIiE4NodeENS_9allocatorIS6_EEE9pop_frontB8ue170006Ev, symObjAddr: 0x3584, symBinAddr: 0x100005C18, symSize: 0x2C }
  - { offsetInCU: 0xC8FB, offset: 0xC8FB, size: 0x8, addend: 0x0, symName: __ZNKSt3__15dequeIPKN3AVLIiE4NodeENS_9allocatorIS5_EEE14__annotate_newB8ue170006Em, symObjAddr: 0x35B0, symBinAddr: 0x100005C44, symSize: 0xB8 }
  - { offsetInCU: 0xC930, offset: 0xC930, size: 0x8, addend: 0x0, symName: __ZNKSt3__114__split_bufferIPPKN3AVLIiE4NodeENS_9allocatorIS6_EEE5emptyB8ue170006Ev, symObjAddr: 0x3668, symBinAddr: 0x100005CFC, symSize: 0x28 }
  - { offsetInCU: 0xC956, offset: 0xC956, size: 0x8, addend: 0x0, symName: __ZNSt3__116__deque_iteratorIPKN3AVLIiE4NodeEPS5_RS5_PS6_lLl512EEC1B8ue170006ES8_S6_, symObjAddr: 0x3690, symBinAddr: 0x100005D24, symSize: 0x3C }
  - { offsetInCU: 0xC99E, offset: 0xC99E, size: 0x8, addend: 0x0, symName: __ZNSt3__116__deque_iteratorIPKN3AVLIiE4NodeEPS5_RS5_PS6_lLl512EEC2B8ue170006ES8_S6_, symObjAddr: 0x36CC, symBinAddr: 0x100005D60, symSize: 0x2C }
  - { offsetInCU: 0xC9E6, offset: 0xC9E6, size: 0x8, addend: 0x0, symName: __ZNKSt3__15dequeIPKN3AVLIiE4NodeENS_9allocatorIS5_EEE4sizeB8ue170006Ev, symObjAddr: 0x36F8, symBinAddr: 0x100005D8C, symSize: 0x28 }
  - { offsetInCU: 0xCA0C, offset: 0xCA0C, size: 0x8, addend: 0x0, symName: __ZNKSt3__15dequeIPKN3AVLIiE4NodeENS_9allocatorIS5_EEE6__sizeB8ue170006Ev, symObjAddr: 0x3720, symBinAddr: 0x100005DB4, symSize: 0x28 }
  - { offsetInCU: 0xCA32, offset: 0xCA32, size: 0x8, addend: 0x0, symName: __ZNKSt3__117__compressed_pairImNS_9allocatorIPKN3AVLIiE4NodeEEEE5firstB8ue170006Ev, symObjAddr: 0x3748, symBinAddr: 0x100005DDC, symSize: 0x24 }
  - { offsetInCU: 0xCA58, offset: 0xCA58, size: 0x8, addend: 0x0, symName: __ZNKSt3__122__compressed_pair_elemImLi0ELb0EE5__getB8ue170006Ev, symObjAddr: 0x376C, symBinAddr: 0x100005E00, symSize: 0x14 }
  - { offsetInCU: 0xCA7E, offset: 0xCA7E, size: 0x8, addend: 0x0, symName: __ZNSt3__19allocatorIPKN3AVLIiE4NodeEE7destroyB8ue170006EPS5_, symObjAddr: 0x37B0, symBinAddr: 0x100005E44, symSize: 0x14 }
  - { offsetInCU: 0xCAB2, offset: 0xCAB2, size: 0x8, addend: 0x0, symName: __ZNSt3__117__compressed_pairImNS_9allocatorIPKN3AVLIiE4NodeEEEE5firstB8ue170006Ev, symObjAddr: 0x37C4, symBinAddr: 0x100005E58, symSize: 0x24 }
  - { offsetInCU: 0xCAD8, offset: 0xCAD8, size: 0x8, addend: 0x0, symName: __ZNSt3__122__compressed_pair_elemImLi0ELb0EE5__getB8ue170006Ev, symObjAddr: 0x37E8, symBinAddr: 0x100005E7C, symSize: 0x14 }
  - { offsetInCU: 0xCAFE, offset: 0xCAFE, size: 0x8, addend: 0x0, symName: __ZNSt3__114__split_bufferIPPKN3AVLIiE4NodeENS_9allocatorIS6_EEE19__destruct_at_beginB8ue170006EPS6_, symObjAddr: 0x37FC, symBinAddr: 0x100005E90, symSize: 0x2C }
  - { offsetInCU: 0xCB32, offset: 0xCB32, size: 0x8, addend: 0x0, symName: __ZNSt3__114__split_bufferIPPKN3AVLIiE4NodeENS_9allocatorIS6_EEE19__destruct_at_beginEPS6_NS_17integral_constantIbLb1EEE, symObjAddr: 0x3828, symBinAddr: 0x100005EBC, symSize: 0x20 }
  - { offsetInCU: 0xCB72, offset: 0xCB72, size: 0x8, addend: 0x0, symName: __ZNKSt3__15dequeIPKN3AVLIiE4NodeENS_9allocatorIS5_EEE18__annotate_from_toB8ue170006EmmNS8_22__asan_annotation_typeENS8_23__asan_annotation_placeE, symObjAddr: 0x3848, symBinAddr: 0x100005EDC, symSize: 0x580 }
  - { offsetInCU: 0xCD2E, offset: 0xCD2E, size: 0x8, addend: 0x0, symName: __ZNKSt3__114__split_bufferIPPKN3AVLIiE4NodeENS_9allocatorIS6_EEE5beginB8ue170006Ev, symObjAddr: 0x3DC8, symBinAddr: 0x10000645C, symSize: 0x18 }
  - { offsetInCU: 0xCD54, offset: 0xCD54, size: 0x8, addend: 0x0, symName: __ZNKSt3__15dequeIPKN3AVLIiE4NodeENS_9allocatorIS5_EEE5emptyB8ue170006Ev, symObjAddr: 0x3DE0, symBinAddr: 0x100006474, symSize: 0x30 }
  - { offsetInCU: 0xCD7A, offset: 0xCD7A, size: 0x8, addend: 0x0, symName: __ZNKSt3__15dequeIPKN3AVLIiE4NodeENS_9allocatorIS5_EEE44__annotate_double_ended_contiguous_containerB8ue170006EPKvSA_SA_SA_SA_SA_, symObjAddr: 0x3E24, symBinAddr: 0x1000064B8, symSize: 0x28 }
  - { offsetInCU: 0xCDE8, offset: 0xCDE8, size: 0x8, addend: 0x0, symName: __ZNKSt3__15dequeIPKN3AVLIiE4NodeENS_9allocatorIS5_EEE22__annotate_whole_blockB8ue170006EmNS8_22__asan_annotation_typeE, symObjAddr: 0x3E4C, symBinAddr: 0x1000064E0, symSize: 0xAC }
  - { offsetInCU: 0xCE59, offset: 0xCE59, size: 0x8, addend: 0x0, symName: __ZNKSt3__15dequeIPKN3AVLIiE4NodeENS_9allocatorIS5_EEE23__annotate_poison_blockB8ue170006EPKvSA_, symObjAddr: 0x3EF8, symBinAddr: 0x10000658C, symSize: 0x44 }
  - { offsetInCU: 0xCE9D, offset: 0xCE9D, size: 0x8, addend: 0x0, symName: __ZNSt3__19allocatorIPKN3AVLIiE4NodeEE10deallocateB8ue170006EPS5_m, symObjAddr: 0x3F3C, symBinAddr: 0x1000065D0, symSize: 0x40 }
  - { offsetInCU: 0xCEDF, offset: 0xCEDF, size: 0x8, addend: 0x0, symName: __ZNSt3__117__compressed_pairImNS_9allocatorIPKN3AVLIiE4NodeEEEE6secondB8ue170006Ev, symObjAddr: 0x40A4, symBinAddr: 0x100006738, symSize: 0x24 }
  - { offsetInCU: 0xCF05, offset: 0xCF05, size: 0x8, addend: 0x0, symName: __ZNSt3__122__compressed_pair_elemINS_9allocatorIPKN3AVLIiE4NodeEEELi1ELb1EE5__getB8ue170006Ev, symObjAddr: 0x40C8, symBinAddr: 0x10000675C, symSize: 0x14 }
  - { offsetInCU: 0xCF2B, offset: 0xCF2B, size: 0x8, addend: 0x0, symName: __ZNSt3__114__split_bufferIPPKN3AVLIiE4NodeENS_9allocatorIS6_EEED2Ev, symObjAddr: 0x40DC, symBinAddr: 0x100006770, symSize: 0x8C }
  - { offsetInCU: 0xCF57, offset: 0xCF57, size: 0x8, addend: 0x0, symName: __ZNSt3__114__split_bufferIPPKN3AVLIiE4NodeENS_9allocatorIS6_EEE5clearB8ue170006Ev, symObjAddr: 0x4168, symBinAddr: 0x1000067FC, symSize: 0x28 }
  - { offsetInCU: 0xCF7D, offset: 0xCF7D, size: 0x8, addend: 0x0, symName: __ZNSt3__116allocator_traitsINS_9allocatorIPPKN3AVLIiE4NodeEEEE10deallocateB8ue170006ERS8_PS7_m, symObjAddr: 0x4190, symBinAddr: 0x100006824, symSize: 0x34 }
  - { offsetInCU: 0xCFBF, offset: 0xCFBF, size: 0x8, addend: 0x0, symName: __ZNSt3__114__split_bufferIPPKN3AVLIiE4NodeENS_9allocatorIS6_EEE7__allocB8ue170006Ev, symObjAddr: 0x41C4, symBinAddr: 0x100006858, symSize: 0x28 }
  - { offsetInCU: 0xCFE5, offset: 0xCFE5, size: 0x8, addend: 0x0, symName: __ZNKSt3__114__split_bufferIPPKN3AVLIiE4NodeENS_9allocatorIS6_EEE8capacityB8ue170006Ev, symObjAddr: 0x41EC, symBinAddr: 0x100006880, symSize: 0x40 }
  - { offsetInCU: 0xD00B, offset: 0xD00B, size: 0x8, addend: 0x0, symName: __ZNSt3__114__split_bufferIPPKN3AVLIiE4NodeENS_9allocatorIS6_EEE17__destruct_at_endB8ue170006EPS6_, symObjAddr: 0x422C, symBinAddr: 0x1000068C0, symSize: 0x2C }
  - { offsetInCU: 0xD03F, offset: 0xD03F, size: 0x8, addend: 0x0, symName: __ZNSt3__114__split_bufferIPPKN3AVLIiE4NodeENS_9allocatorIS6_EEE17__destruct_at_endB8ue170006EPS6_NS_17integral_constantIbLb0EEE, symObjAddr: 0x4258, symBinAddr: 0x1000068EC, symSize: 0x80 }
  - { offsetInCU: 0xD07F, offset: 0xD07F, size: 0x8, addend: 0x0, symName: __ZNSt3__116allocator_traitsINS_9allocatorIPPKN3AVLIiE4NodeEEEE7destroyB8ue170006IS7_vEEvRS8_PT_, symObjAddr: 0x42D8, symBinAddr: 0x10000696C, symSize: 0x2C }
  - { offsetInCU: 0xD0BC, offset: 0xD0BC, size: 0x8, addend: 0x0, symName: __ZNSt3__19allocatorIPPKN3AVLIiE4NodeEE7destroyB8ue170006EPS6_, symObjAddr: 0x4318, symBinAddr: 0x1000069AC, symSize: 0x14 }
  - { offsetInCU: 0xD0F0, offset: 0xD0F0, size: 0x8, addend: 0x0, symName: __ZNSt3__19allocatorIPPKN3AVLIiE4NodeEE10deallocateB8ue170006EPS6_m, symObjAddr: 0x432C, symBinAddr: 0x1000069C0, symSize: 0x40 }
  - { offsetInCU: 0xD132, offset: 0xD132, size: 0x8, addend: 0x0, symName: __ZNSt3__117__compressed_pairIPPPKN3AVLIiE4NodeENS_9allocatorIS6_EEE6secondB8ue170006Ev, symObjAddr: 0x436C, symBinAddr: 0x100006A00, symSize: 0x24 }
  - { offsetInCU: 0xD158, offset: 0xD158, size: 0x8, addend: 0x0, symName: __ZNSt3__122__compressed_pair_elemINS_9allocatorIPPKN3AVLIiE4NodeEEELi1ELb1EE5__getB8ue170006Ev, symObjAddr: 0x4390, symBinAddr: 0x100006A24, symSize: 0x14 }
  - { offsetInCU: 0xD17E, offset: 0xD17E, size: 0x8, addend: 0x0, symName: __ZNKSt3__114__split_bufferIPPKN3AVLIiE4NodeENS_9allocatorIS6_EEE9__end_capB8ue170006Ev, symObjAddr: 0x43A4, symBinAddr: 0x100006A38, symSize: 0x28 }
  - { offsetInCU: 0xD1A4, offset: 0xD1A4, size: 0x8, addend: 0x0, symName: __ZNKSt3__117__compressed_pairIPPPKN3AVLIiE4NodeENS_9allocatorIS6_EEE5firstB8ue170006Ev, symObjAddr: 0x43CC, symBinAddr: 0x100006A60, symSize: 0x24 }
  - { offsetInCU: 0xD1CA, offset: 0xD1CA, size: 0x8, addend: 0x0, symName: __ZNKSt3__122__compressed_pair_elemIPPPKN3AVLIiE4NodeELi0ELb0EE5__getB8ue170006Ev, symObjAddr: 0x43F0, symBinAddr: 0x100006A84, symSize: 0x14 }
  - { offsetInCU: 0xD1F0, offset: 0xD1F0, size: 0x8, addend: 0x0, symName: __ZNSt3__18ios_base4setfB8ue170006Ej, symObjAddr: 0x4404, symBinAddr: 0x100006A98, symSize: 0x34 }
  - { offsetInCU: 0xD254, offset: 0xD254, size: 0x8, addend: 0x0, symName: __ZNKSt3__113basic_ostreamIcNS_11char_traitsIcEEE6sentrycvbB8ue170006Ev, symObjAddr: 0x4624, symBinAddr: 0x100006CB8, symSize: 0x1C }
  - { offsetInCU: 0xD27A, offset: 0xD27A, size: 0x8, addend: 0x0, symName: __ZNSt3__119ostreambuf_iteratorIcNS_11char_traitsIcEEEC1B8ue170006ERNS_13basic_ostreamIcS2_EE, symObjAddr: 0x4880, symBinAddr: 0x100006F14, symSize: 0x34 }
  - { offsetInCU: 0xD2B2, offset: 0xD2B2, size: 0x8, addend: 0x0, symName: __ZNKSt3__18ios_base5flagsB8ue170006Ev, symObjAddr: 0x48B4, symBinAddr: 0x100006F48, symSize: 0x18 }
  - { offsetInCU: 0xD2DA, offset: 0xD2DA, size: 0x8, addend: 0x0, symName: __ZNKSt3__19basic_iosIcNS_11char_traitsIcEEE4fillB8ue170006Ev, symObjAddr: 0x48CC, symBinAddr: 0x100006F60, symSize: 0x64 }
  - { offsetInCU: 0xD302, offset: 0xD302, size: 0x8, addend: 0x0, symName: __ZNKSt3__119ostreambuf_iteratorIcNS_11char_traitsIcEEE6failedB8ue170006Ev, symObjAddr: 0x4930, symBinAddr: 0x100006FC4, symSize: 0x24 }
  - { offsetInCU: 0xD328, offset: 0xD328, size: 0x8, addend: 0x0, symName: __ZNSt3__19basic_iosIcNS_11char_traitsIcEEE8setstateB8ue170006Ej, symObjAddr: 0x4954, symBinAddr: 0x100006FE8, symSize: 0x2C }
  - { offsetInCU: 0xD35D, offset: 0xD35D, size: 0x8, addend: 0x0, symName: __ZNKSt3__18ios_base5widthB8ue170006Ev, symObjAddr: 0x4980, symBinAddr: 0x100007014, symSize: 0x18 }
  - { offsetInCU: 0xD385, offset: 0xD385, size: 0x8, addend: 0x0, symName: __ZNSt3__115basic_streambufIcNS_11char_traitsIcEEE5sputnB8ue170006EPKcl, symObjAddr: 0x4998, symBinAddr: 0x10000702C, symSize: 0x3C }
  - { offsetInCU: 0xD3C7, offset: 0xD3C7, size: 0x8, addend: 0x0, symName: __ZNSt3__112basic_stringIcNS_11char_traitsIcEENS_9allocatorIcEEEC1B8ue170006Emc, symObjAddr: 0x49D4, symBinAddr: 0x100007068, symSize: 0x3C }
  - { offsetInCU: 0xD40F, offset: 0xD40F, size: 0x8, addend: 0x0, symName: __ZNSt3__112basic_stringIcNS_11char_traitsIcEENS_9allocatorIcEEE4dataB8ue170006Ev, symObjAddr: 0x4A10, symBinAddr: 0x1000070A4, symSize: 0x28 }
  - { offsetInCU: 0xD435, offset: 0xD435, size: 0x8, addend: 0x0, symName: __ZNSt3__18ios_base5widthB8ue170006El, symObjAddr: 0x4A38, symBinAddr: 0x1000070CC, symSize: 0x2C }
  - { offsetInCU: 0xD47B, offset: 0xD47B, size: 0x8, addend: 0x0, symName: __ZNSt3__112basic_stringIcNS_11char_traitsIcEENS_9allocatorIcEEEC2B8ue170006Emc, symObjAddr: 0x4A64, symBinAddr: 0x1000070F8, symSize: 0x4C }
  - { offsetInCU: 0xD4C8, offset: 0xD4C8, size: 0x8, addend: 0x0, symName: __ZNSt3__117__compressed_pairINS_12basic_stringIcNS_11char_traitsIcEENS_9allocatorIcEEE5__repES5_EC1B8ue170006INS_18__default_init_tagESA_EEOT_OT0_, symObjAddr: 0x4AB0, symBinAddr: 0x100007144, symSize: 0x3C }
  - { offsetInCU: 0xD520, offset: 0xD520, size: 0x8, addend: 0x0, symName: __ZNSt3__117__compressed_pairINS_12basic_stringIcNS_11char_traitsIcEENS_9allocatorIcEEE5__repES5_EC2B8ue170006INS_18__default_init_tagESA_EEOT_OT0_, symObjAddr: 0x4AEC, symBinAddr: 0x100007180, symSize: 0x3C }
  - { offsetInCU: 0xD578, offset: 0xD578, size: 0x8, addend: 0x0, symName: __ZNSt3__122__compressed_pair_elemINS_12basic_stringIcNS_11char_traitsIcEENS_9allocatorIcEEE5__repELi0ELb0EEC2B8ue170006ENS_18__default_init_tagE, symObjAddr: 0x4B28, symBinAddr: 0x1000071BC, symSize: 0x14 }
  - { offsetInCU: 0xD5AC, offset: 0xD5AC, size: 0x8, addend: 0x0, symName: __ZNSt3__122__compressed_pair_elemINS_9allocatorIcEELi1ELb1EEC2B8ue170006ENS_18__default_init_tagE, symObjAddr: 0x4B3C, symBinAddr: 0x1000071D0, symSize: 0x2C }
  - { offsetInCU: 0xD5E0, offset: 0xD5E0, size: 0x8, addend: 0x0, symName: __ZNSt3__19allocatorIcEC2B8ue170006Ev, symObjAddr: 0x4B68, symBinAddr: 0x1000071FC, symSize: 0x2C }
  - { offsetInCU: 0xD60A, offset: 0xD60A, size: 0x8, addend: 0x0, symName: __ZNSt3__116__non_trivial_ifILb1ENS_9allocatorIcEEEC2B8ue170006Ev, symObjAddr: 0x4B94, symBinAddr: 0x100007228, symSize: 0x14 }
  - { offsetInCU: 0xD634, offset: 0xD634, size: 0x8, addend: 0x0, symName: __ZNSt3__112basic_stringIcNS_11char_traitsIcEENS_9allocatorIcEEE13__get_pointerB8ue170006Ev, symObjAddr: 0x4BBC, symBinAddr: 0x100007250, symSize: 0x54 }
  - { offsetInCU: 0xD65A, offset: 0xD65A, size: 0x8, addend: 0x0, symName: __ZNKSt3__112basic_stringIcNS_11char_traitsIcEENS_9allocatorIcEEE9__is_longB8ue170006Ev, symObjAddr: 0x4C10, symBinAddr: 0x1000072A4, symSize: 0x38 }
  - { offsetInCU: 0xD680, offset: 0xD680, size: 0x8, addend: 0x0, symName: __ZNSt3__112basic_stringIcNS_11char_traitsIcEENS_9allocatorIcEEE18__get_long_pointerB8ue170006Ev, symObjAddr: 0x4C48, symBinAddr: 0x1000072DC, symSize: 0x28 }
  - { offsetInCU: 0xD6A6, offset: 0xD6A6, size: 0x8, addend: 0x0, symName: __ZNSt3__112basic_stringIcNS_11char_traitsIcEENS_9allocatorIcEEE19__get_short_pointerB8ue170006Ev, symObjAddr: 0x4C70, symBinAddr: 0x100007304, symSize: 0x28 }
  - { offsetInCU: 0xD6CC, offset: 0xD6CC, size: 0x8, addend: 0x0, symName: __ZNKSt3__117__compressed_pairINS_12basic_stringIcNS_11char_traitsIcEENS_9allocatorIcEEE5__repES5_E5firstB8ue170006Ev, symObjAddr: 0x4C98, symBinAddr: 0x10000732C, symSize: 0x24 }
  - { offsetInCU: 0xD6F2, offset: 0xD6F2, size: 0x8, addend: 0x0, symName: __ZNKSt3__122__compressed_pair_elemINS_12basic_stringIcNS_11char_traitsIcEENS_9allocatorIcEEE5__repELi0ELb0EE5__getB8ue170006Ev, symObjAddr: 0x4CBC, symBinAddr: 0x100007350, symSize: 0x14 }
  - { offsetInCU: 0xD718, offset: 0xD718, size: 0x8, addend: 0x0, symName: __ZNSt3__117__compressed_pairINS_12basic_stringIcNS_11char_traitsIcEENS_9allocatorIcEEE5__repES5_E5firstB8ue170006Ev, symObjAddr: 0x4CD0, symBinAddr: 0x100007364, symSize: 0x24 }
  - { offsetInCU: 0xD73E, offset: 0xD73E, size: 0x8, addend: 0x0, symName: __ZNSt3__122__compressed_pair_elemINS_12basic_stringIcNS_11char_traitsIcEENS_9allocatorIcEEE5__repELi0ELb0EE5__getB8ue170006Ev, symObjAddr: 0x4CF4, symBinAddr: 0x100007388, symSize: 0x14 }
  - { offsetInCU: 0xD764, offset: 0xD764, size: 0x8, addend: 0x0, symName: __ZNSt3__114pointer_traitsIPcE10pointer_toB8ue170006ERc, symObjAddr: 0x4D08, symBinAddr: 0x10000739C, symSize: 0x14 }
  - { offsetInCU: 0xD787, offset: 0xD787, size: 0x8, addend: 0x0, symName: __ZNSt3__119ostreambuf_iteratorIcNS_11char_traitsIcEEEC2B8ue170006ERNS_13basic_ostreamIcS2_EE, symObjAddr: 0x4D1C, symBinAddr: 0x1000073B0, symSize: 0x54 }
  - { offsetInCU: 0xD7BF, offset: 0xD7BF, size: 0x8, addend: 0x0, symName: __ZNKSt3__19basic_iosIcNS_11char_traitsIcEEE5rdbufB8ue170006Ev, symObjAddr: 0x4D70, symBinAddr: 0x100007404, symSize: 0x24 }
  - { offsetInCU: 0xD7E7, offset: 0xD7E7, size: 0x8, addend: 0x0, symName: __ZNKSt3__18ios_base5rdbufB8ue170006Ev, symObjAddr: 0x4D94, symBinAddr: 0x100007428, symSize: 0x18 }
  - { offsetInCU: 0xD80D, offset: 0xD80D, size: 0x8, addend: 0x0, symName: __ZNSt3__111char_traitsIcE11eq_int_typeB8ue170006Eii, symObjAddr: 0x4DAC, symBinAddr: 0x100007440, symSize: 0x28 }
  - { offsetInCU: 0xD840, offset: 0xD840, size: 0x8, addend: 0x0, symName: __ZNSt3__111char_traitsIcE3eofB8ue170006Ev, symObjAddr: 0x4DD4, symBinAddr: 0x100007468, symSize: 0x8 }
  - { offsetInCU: 0xD854, offset: 0xD854, size: 0x8, addend: 0x0, symName: __ZNKSt3__19basic_iosIcNS_11char_traitsIcEEE5widenB8ue170006Ec, symObjAddr: 0x4DDC, symBinAddr: 0x100007470, symSize: 0x84 }
  - { offsetInCU: 0xD8BD, offset: 0xD8BD, size: 0x8, addend: 0x0, symName: __ZNKSt3__15ctypeIcE5widenB8ue170006Ec, symObjAddr: 0x4E8C, symBinAddr: 0x100007520, symSize: 0x38 }
  - { offsetInCU: 0xD8F2, offset: 0xD8F2, size: 0x8, addend: 0x0, symName: __ZNSt3__18ios_base8setstateB8ue170006Ej, symObjAddr: 0x4EC4, symBinAddr: 0x100007558, symSize: 0x34 }
  - { offsetInCU: 0xD929, offset: 0xD929, size: 0x8, addend: 0x0, symName: __ZNSt3__111char_traitsIcE6lengthB8ue170006EPKc, symObjAddr: 0x4EF8, symBinAddr: 0x10000758C, symSize: 0x34 }
  - { offsetInCU: 0xD94C, offset: 0xD94C, size: 0x8, addend: 0x0, symName: __ZNSt3__15queueIPKN3AVLIiE4NodeENS_5dequeIS5_NS_9allocatorIS5_EEEEEC2B8ue170006Ev, symObjAddr: 0x4F50, symBinAddr: 0x1000075E4, symSize: 0x2C }
  - { offsetInCU: 0xD976, offset: 0xD976, size: 0x8, addend: 0x0, symName: __ZNSt3__15dequeIPKN3AVLIiE4NodeENS_9allocatorIS5_EEEC1B8ue170006Ev, symObjAddr: 0x4F7C, symBinAddr: 0x100007610, symSize: 0x2C }
  - { offsetInCU: 0xD9A0, offset: 0xD9A0, size: 0x8, addend: 0x0, symName: __ZNSt3__15dequeIPKN3AVLIiE4NodeENS_9allocatorIS5_EEEC2B8ue170006Ev, symObjAddr: 0x4FA8, symBinAddr: 0x10000763C, symSize: 0x5C }
  - { offsetInCU: 0xD9CA, offset: 0xD9CA, size: 0x8, addend: 0x0, symName: __ZNSt3__114__split_bufferIPPKN3AVLIiE4NodeENS_9allocatorIS6_EEEC1B8ue170006Ev, symObjAddr: 0x5004, symBinAddr: 0x100007698, symSize: 0x2C }
  - { offsetInCU: 0xD9F9, offset: 0xD9F9, size: 0x8, addend: 0x0, symName: __ZNSt3__117__compressed_pairImNS_9allocatorIPKN3AVLIiE4NodeEEEEC1B8ue170006IiNS_18__default_init_tagEEEOT_OT0_, symObjAddr: 0x5030, symBinAddr: 0x1000076C4, symSize: 0x3C }
  - { offsetInCU: 0xDA51, offset: 0xDA51, size: 0x8, addend: 0x0, symName: __ZNSt3__114__split_bufferIPPKN3AVLIiE4NodeENS_9allocatorIS6_EEEC2B8ue170006Ev, symObjAddr: 0x506C, symBinAddr: 0x100007700, symSize: 0x50 }
  - { offsetInCU: 0xDA80, offset: 0xDA80, size: 0x8, addend: 0x0, symName: __ZNSt3__117__compressed_pairIPPPKN3AVLIiE4NodeENS_9allocatorIS6_EEEC1B8ue170006IDnNS_18__default_init_tagEEEOT_OT0_, symObjAddr: 0x50BC, symBinAddr: 0x100007750, symSize: 0x3C }
  - { offsetInCU: 0xDAD8, offset: 0xDAD8, size: 0x8, addend: 0x0, symName: __ZNSt3__117__compressed_pairIPPPKN3AVLIiE4NodeENS_9allocatorIS6_EEEC2B8ue170006IDnNS_18__default_init_tagEEEOT_OT0_, symObjAddr: 0x50F8, symBinAddr: 0x10000778C, symSize: 0x40 }
  - { offsetInCU: 0xDB30, offset: 0xDB30, size: 0x8, addend: 0x0, symName: __ZNSt3__122__compressed_pair_elemIPPPKN3AVLIiE4NodeELi0ELb0EEC2B8ue170006IDnvEEOT_, symObjAddr: 0x5138, symBinAddr: 0x1000077CC, symSize: 0x1C }
  - { offsetInCU: 0xDB72, offset: 0xDB72, size: 0x8, addend: 0x0, symName: __ZNSt3__122__compressed_pair_elemINS_9allocatorIPPKN3AVLIiE4NodeEEELi1ELb1EEC2B8ue170006ENS_18__default_init_tagE, symObjAddr: 0x5154, symBinAddr: 0x1000077E8, symSize: 0x2C }
  - { offsetInCU: 0xDBA6, offset: 0xDBA6, size: 0x8, addend: 0x0, symName: __ZNSt3__19allocatorIPPKN3AVLIiE4NodeEEC2B8ue170006Ev, symObjAddr: 0x5180, symBinAddr: 0x100007814, symSize: 0x2C }
  - { offsetInCU: 0xDBD0, offset: 0xDBD0, size: 0x8, addend: 0x0, symName: __ZNSt3__116__non_trivial_ifILb1ENS_9allocatorIPPKN3AVLIiE4NodeEEEEC2B8ue170006Ev, symObjAddr: 0x51AC, symBinAddr: 0x100007840, symSize: 0x14 }
  - { offsetInCU: 0xDBFA, offset: 0xDBFA, size: 0x8, addend: 0x0, symName: __ZNSt3__117__compressed_pairImNS_9allocatorIPKN3AVLIiE4NodeEEEEC2B8ue170006IiNS_18__default_init_tagEEEOT_OT0_, symObjAddr: 0x51C0, symBinAddr: 0x100007854, symSize: 0x40 }
  - { offsetInCU: 0xDC52, offset: 0xDC52, size: 0x8, addend: 0x0, symName: __ZNSt3__122__compressed_pair_elemImLi0ELb0EEC2B8ue170006IivEEOT_, symObjAddr: 0x5200, symBinAddr: 0x100007894, symSize: 0x24 }
  - { offsetInCU: 0xDC94, offset: 0xDC94, size: 0x8, addend: 0x0, symName: __ZNSt3__122__compressed_pair_elemINS_9allocatorIPKN3AVLIiE4NodeEEELi1ELb1EEC2B8ue170006ENS_18__default_init_tagE, symObjAddr: 0x5224, symBinAddr: 0x1000078B8, symSize: 0x2C }
  - { offsetInCU: 0xDCC8, offset: 0xDCC8, size: 0x8, addend: 0x0, symName: __ZNSt3__19allocatorIPKN3AVLIiE4NodeEEC2B8ue170006Ev, symObjAddr: 0x5250, symBinAddr: 0x1000078E4, symSize: 0x2C }
  - { offsetInCU: 0xDCF2, offset: 0xDCF2, size: 0x8, addend: 0x0, symName: __ZNSt3__116__non_trivial_ifILb1ENS_9allocatorIPKN3AVLIiE4NodeEEEEC2B8ue170006Ev, symObjAddr: 0x527C, symBinAddr: 0x100007910, symSize: 0x14 }
  - { offsetInCU: 0xDD1C, offset: 0xDD1C, size: 0x8, addend: 0x0, symName: __ZNSt3__15dequeIPKN3AVLIiE4NodeENS_9allocatorIS5_EEE9push_backERKS5_, symObjAddr: 0x5290, symBinAddr: 0x100007924, symSize: 0xAC }
  - { offsetInCU: 0xDD62, offset: 0xDD62, size: 0x8, addend: 0x0, symName: __ZNKSt3__15dequeIPKN3AVLIiE4NodeENS_9allocatorIS5_EEE12__back_spareB8ue170006Ev, symObjAddr: 0x533C, symBinAddr: 0x1000079D0, symSize: 0x54 }
  - { offsetInCU: 0xDD88, offset: 0xDD88, size: 0x8, addend: 0x0, symName: __ZNSt3__15dequeIPKN3AVLIiE4NodeENS_9allocatorIS5_EEE19__add_back_capacityEv, symObjAddr: 0x5390, symBinAddr: 0x100007A24, symSize: 0x34C }
  - { offsetInCU: 0xDE3D, offset: 0xDE3D, size: 0x8, addend: 0x0, symName: __ZNKSt3__15dequeIPKN3AVLIiE4NodeENS_9allocatorIS5_EEE24__annotate_increase_backB8ue170006Em, symObjAddr: 0x56DC, symBinAddr: 0x100007D70, symSize: 0x7C }
  - { offsetInCU: 0xDE72, offset: 0xDE72, size: 0x8, addend: 0x0, symName: __ZNSt3__116allocator_traitsINS_9allocatorIPKN3AVLIiE4NodeEEEE9constructB8ue170006IS6_JRKS6_EvEEvRS7_PT_DpOT0_, symObjAddr: 0x5758, symBinAddr: 0x100007DEC, symSize: 0x34 }
  - { offsetInCU: 0xDEC9, offset: 0xDEC9, size: 0x8, addend: 0x0, symName: __ZNKSt3__15dequeIPKN3AVLIiE4NodeENS_9allocatorIS5_EEE10__capacityB8ue170006Ev, symObjAddr: 0x578C, symBinAddr: 0x100007E20, symSize: 0x60 }
  - { offsetInCU: 0xDEEF, offset: 0xDEEF, size: 0x8, addend: 0x0, symName: __ZNKSt3__15dequeIPKN3AVLIiE4NodeENS_9allocatorIS5_EEE13__front_spareB8ue170006Ev, symObjAddr: 0x57EC, symBinAddr: 0x100007E80, symSize: 0x18 }
  - { offsetInCU: 0xDF15, offset: 0xDF15, size: 0x8, addend: 0x0, symName: __ZNSt3__114__split_bufferIPPKN3AVLIiE4NodeENS_9allocatorIS6_EEE9push_backB8ue170006ERKS6_, symObjAddr: 0x5804, symBinAddr: 0x100007E98, symSize: 0x260 }
  - { offsetInCU: 0xDF8D, offset: 0xDF8D, size: 0x8, addend: 0x0, symName: __ZNKSt3__114__split_bufferIPPKN3AVLIiE4NodeENS_9allocatorIS6_EEE12__back_spareB8ue170006Ev, symObjAddr: 0x5A64, symBinAddr: 0x1000080F8, symSize: 0x40 }
  - { offsetInCU: 0xDFB3, offset: 0xDFB3, size: 0x8, addend: 0x0, symName: __ZNSt3__114__split_bufferIPPKN3AVLIiE4NodeENS_9allocatorIS6_EEE9push_backEOS6_, symObjAddr: 0x5AA4, symBinAddr: 0x100008138, symSize: 0x260 }
  - { offsetInCU: 0xE02B, offset: 0xE02B, size: 0x8, addend: 0x0, symName: __ZNSt3__116allocator_traitsINS_9allocatorIPKN3AVLIiE4NodeEEEE8allocateB8ue170006ERS7_m, symObjAddr: 0x5D04, symBinAddr: 0x100008398, symSize: 0x2C }
  - { offsetInCU: 0xE05E, offset: 0xE05E, size: 0x8, addend: 0x0, symName: __ZNSt3__114__split_bufferIPPKN3AVLIiE4NodeENS_9allocatorIS6_EEE10push_frontEOS6_, symObjAddr: 0x5D30, symBinAddr: 0x1000083C4, symSize: 0x25C }
  - { offsetInCU: 0xE0D6, offset: 0xE0D6, size: 0x8, addend: 0x0, symName: __ZNSt3__114__split_bufferIPPKN3AVLIiE4NodeERNS_9allocatorIS6_EEEC1EmmS9_, symObjAddr: 0x5FB8, symBinAddr: 0x10000864C, symSize: 0x44 }
  - { offsetInCU: 0xE131, offset: 0xE131, size: 0x8, addend: 0x0, symName: __ZNSt3__122__allocator_destructorINS_9allocatorIPKN3AVLIiE4NodeEEEEC1B8ue170006ERS7_m, symObjAddr: 0x5FFC, symBinAddr: 0x100008690, symSize: 0x3C }
  - { offsetInCU: 0xE1F4, offset: 0xE1F4, size: 0x8, addend: 0x0, symName: __ZNSt3__110unique_ptrIPPKN3AVLIiE4NodeENS_22__allocator_destructorINS_9allocatorIS5_EEEEEC1B8ue170006ILb1EvEES6_NS_16__dependent_typeINS_27__unique_ptr_deleter_sfinaeISA_EEXT_EE20__good_rval_ref_typeE, symObjAddr: 0x6038, symBinAddr: 0x1000086CC, symSize: 0x3C }
  - { offsetInCU: 0xE245, offset: 0xE245, size: 0x8, addend: 0x0, symName: __ZNSt3__114__split_bufferIPPKN3AVLIiE4NodeERNS_9allocatorIS6_EEE9push_backEOS6_, symObjAddr: 0x6074, symBinAddr: 0x100008708, symSize: 0x260 }
  - { offsetInCU: 0xE2BD, offset: 0xE2BD, size: 0x8, addend: 0x0, symName: __ZNKSt3__110unique_ptrIPPKN3AVLIiE4NodeENS_22__allocator_destructorINS_9allocatorIS5_EEEEE3getB8ue170006Ev, symObjAddr: 0x62D4, symBinAddr: 0x100008968, symSize: 0x28 }
  - { offsetInCU: 0xE2E3, offset: 0xE2E3, size: 0x8, addend: 0x0, symName: __ZNSt3__110unique_ptrIPPKN3AVLIiE4NodeENS_22__allocator_destructorINS_9allocatorIS5_EEEEE7releaseB8ue170006Ev, symObjAddr: 0x62FC, symBinAddr: 0x100008990, symSize: 0x44 }
  - { offsetInCU: 0xE318, offset: 0xE318, size: 0x8, addend: 0x0, symName: __ZNSt3__114__split_bufferIPPKN3AVLIiE4NodeERNS_9allocatorIS6_EEE10push_frontERKS6_, symObjAddr: 0x6340, symBinAddr: 0x1000089D4, symSize: 0x25C }
  - { offsetInCU: 0xE390, offset: 0xE390, size: 0x8, addend: 0x0, symName: __ZNSt3__114__split_bufferIPPKN3AVLIiE4NodeENS_9allocatorIS6_EEE9__end_capB8ue170006Ev, symObjAddr: 0x65D8, symBinAddr: 0x100008C6C, symSize: 0x28 }
  - { offsetInCU: 0xE3B6, offset: 0xE3B6, size: 0x8, addend: 0x0, symName: __ZNSt3__114__split_bufferIPPKN3AVLIiE4NodeERNS_9allocatorIS6_EEE9__end_capB8ue170006Ev, symObjAddr: 0x6600, symBinAddr: 0x100008C94, symSize: 0x28 }
  - { offsetInCU: 0xE3DC, offset: 0xE3DC, size: 0x8, addend: 0x0, symName: __ZNSt3__110unique_ptrIPPKN3AVLIiE4NodeENS_22__allocator_destructorINS_9allocatorIS5_EEEEED1B8ue170006Ev, symObjAddr: 0x6628, symBinAddr: 0x100008CBC, symSize: 0x2C }
  - { offsetInCU: 0xE406, offset: 0xE406, size: 0x8, addend: 0x0, symName: __ZNSt3__114__split_bufferIPPKN3AVLIiE4NodeERNS_9allocatorIS6_EEED1Ev, symObjAddr: 0x6654, symBinAddr: 0x100008CE8, symSize: 0x2C }
  - { offsetInCU: 0xE432, offset: 0xE432, size: 0x8, addend: 0x0, symName: __ZNSt3__114__split_bufferIPPKN3AVLIiE4NodeERNS_9allocatorIS6_EEE18__construct_at_endINS_13move_iteratorIPS6_EEEENS_9enable_ifIXsr31__has_forward_iterator_categoryIT_EE5valueEvE4typeESG_SG_, symObjAddr: 0x66C0, symBinAddr: 0x100008D54, symSize: 0x60 }
  - { offsetInCU: 0xE47F, offset: 0xE47F, size: 0x8, addend: 0x0, symName: __ZNSt3__113move_iteratorIPPPKN3AVLIiE4NodeEEC1B8ue170006ES7_, symObjAddr: 0x6720, symBinAddr: 0x100008DB4, symSize: 0x34 }
  - { offsetInCU: 0xE4B7, offset: 0xE4B7, size: 0x8, addend: 0x0, symName: __ZNSt3__116allocator_traitsINS_9allocatorIPPKN3AVLIiE4NodeEEEE9constructB8ue170006IS7_JRKS7_EvEEvRS8_PT_DpOT0_, symObjAddr: 0x6754, symBinAddr: 0x100008DE8, symSize: 0x34 }
  - { offsetInCU: 0xE531, offset: 0xE531, size: 0x8, addend: 0x0, symName: __ZNKSt3__114__move_trivialclB8ue170006IPPKN3AVLIiE4NodeES7_Li0EEENS_4pairIPT_PT0_EESA_SA_SC_, symObjAddr: 0x6924, symBinAddr: 0x100008FB8, symSize: 0x48 }
  - { offsetInCU: 0xE59E, offset: 0xE59E, size: 0x8, addend: 0x0, symName: __ZNSt3__14pairIPPPKN3AVLIiE4NodeES7_EC1B8ue170006IRS7_S7_LPv0EEEOT_OT0_, symObjAddr: 0x6B4C, symBinAddr: 0x1000091E0, symSize: 0x3C }
  - { offsetInCU: 0xE5FC, offset: 0xE5FC, size: 0x8, addend: 0x0, symName: __ZNSt3__14pairIPPPKN3AVLIiE4NodeES7_EC2B8ue170006IRS7_S7_LPv0EEEOT_OT0_, symObjAddr: 0x6B88, symBinAddr: 0x10000921C, symSize: 0x34 }
  - { offsetInCU: 0xE65A, offset: 0xE65A, size: 0x8, addend: 0x0, symName: __ZNSt3__118__unwrap_iter_implIPPPKN3AVLIiE4NodeELb1EE8__unwrapB8ue170006ES7_, symObjAddr: 0x6BBC, symBinAddr: 0x100009250, symSize: 0x24 }
  - { offsetInCU: 0xE67D, offset: 0xE67D, size: 0x8, addend: 0x0, symName: __ZNSt3__14pairIPPPKN3AVLIiE4NodeES7_EC1B8ue170006IS7_S7_LPv0EEEOT_OT0_, symObjAddr: 0x6BE0, symBinAddr: 0x100009274, symSize: 0x3C }
  - { offsetInCU: 0xE6DB, offset: 0xE6DB, size: 0x8, addend: 0x0, symName: __ZNSt3__14pairIPPPKN3AVLIiE4NodeES7_EC2B8ue170006IS7_S7_LPv0EEEOT_OT0_, symObjAddr: 0x6C1C, symBinAddr: 0x1000092B0, symSize: 0x34 }
  - { offsetInCU: 0xE739, offset: 0xE739, size: 0x8, addend: 0x0, symName: __ZNSt3__118__unwrap_iter_implIPPPKN3AVLIiE4NodeELb1EE8__rewrapB8ue170006ES7_S7_, symObjAddr: 0x6C50, symBinAddr: 0x1000092E4, symSize: 0x50 }
  - { offsetInCU: 0xE76A, offset: 0xE76A, size: 0x8, addend: 0x0, symName: __ZNSt3__114__split_bufferIPPKN3AVLIiE4NodeERNS_9allocatorIS6_EEE28__construct_at_end_with_sizeINS_13move_iteratorIPS6_EEEEvT_m, symObjAddr: 0x6CA0, symBinAddr: 0x100009334, symSize: 0xDC }
  - { offsetInCU: 0xE7D0, offset: 0xE7D0, size: 0x8, addend: 0x0, symName: __ZNSt3__114__split_bufferIPPKN3AVLIiE4NodeERNS_9allocatorIS6_EEE21_ConstructTransactionC1B8ue170006EPPS6_m, symObjAddr: 0x6DB8, symBinAddr: 0x10000944C, symSize: 0x3C }
  - { offsetInCU: 0xE816, offset: 0xE816, size: 0x8, addend: 0x0, symName: __ZNSt3__116allocator_traitsINS_9allocatorIPPKN3AVLIiE4NodeEEEE9constructB8ue170006IS7_JS7_EvEEvRS8_PT_DpOT0_, symObjAddr: 0x6DF4, symBinAddr: 0x100009488, symSize: 0x34 }
  - { offsetInCU: 0xE86D, offset: 0xE86D, size: 0x8, addend: 0x0, symName: __ZNSt3__114__split_bufferIPPKN3AVLIiE4NodeERNS_9allocatorIS6_EEE7__allocB8ue170006Ev, symObjAddr: 0x6E28, symBinAddr: 0x1000094BC, symSize: 0x28 }
  - { offsetInCU: 0xE893, offset: 0xE893, size: 0x8, addend: 0x0, symName: __ZNKSt3__113move_iteratorIPPPKN3AVLIiE4NodeEEdeB8ue170006Ev, symObjAddr: 0x6E50, symBinAddr: 0x1000094E4, symSize: 0x18 }
  - { offsetInCU: 0xE8B9, offset: 0xE8B9, size: 0x8, addend: 0x0, symName: __ZNSt3__113move_iteratorIPPPKN3AVLIiE4NodeEEppB8ue170006Ev, symObjAddr: 0x6E68, symBinAddr: 0x1000094FC, symSize: 0x20 }
  - { offsetInCU: 0xE8DF, offset: 0xE8DF, size: 0x8, addend: 0x0, symName: __ZNSt3__114__split_bufferIPPKN3AVLIiE4NodeERNS_9allocatorIS6_EEE21_ConstructTransactionD1B8ue170006Ev, symObjAddr: 0x6E88, symBinAddr: 0x10000951C, symSize: 0x2C }
  - { offsetInCU: 0xE909, offset: 0xE909, size: 0x8, addend: 0x0, symName: __ZNSt3__114__split_bufferIPPKN3AVLIiE4NodeERNS_9allocatorIS6_EEE21_ConstructTransactionC2B8ue170006EPPS6_m, symObjAddr: 0x6EB4, symBinAddr: 0x100009548, symSize: 0x44 }
  - { offsetInCU: 0xE94F, offset: 0xE94F, size: 0x8, addend: 0x0, symName: __ZNSt3__19allocatorIPPKN3AVLIiE4NodeEE9constructB8ue170006IS6_JS6_EEEvPT_DpOT0_, symObjAddr: 0x6EF8, symBinAddr: 0x10000958C, symSize: 0x28 }
  - { offsetInCU: 0xE9A5, offset: 0xE9A5, size: 0x8, addend: 0x0, symName: __ZNSt3__117__compressed_pairIPPPKN3AVLIiE4NodeERNS_9allocatorIS6_EEE6secondB8ue170006Ev, symObjAddr: 0x6F20, symBinAddr: 0x1000095B4, symSize: 0x28 }
  - { offsetInCU: 0xE9CB, offset: 0xE9CB, size: 0x8, addend: 0x0, symName: __ZNSt3__122__compressed_pair_elemIRNS_9allocatorIPPKN3AVLIiE4NodeEEELi1ELb0EE5__getB8ue170006Ev, symObjAddr: 0x6F48, symBinAddr: 0x1000095DC, symSize: 0x18 }
  - { offsetInCU: 0xE9F1, offset: 0xE9F1, size: 0x8, addend: 0x0, symName: __ZNSt3__114__split_bufferIPPKN3AVLIiE4NodeERNS_9allocatorIS6_EEE21_ConstructTransactionD2B8ue170006Ev, symObjAddr: 0x6F60, symBinAddr: 0x1000095F4, symSize: 0x20 }
  - { offsetInCU: 0xEA1B, offset: 0xEA1B, size: 0x8, addend: 0x0, symName: __ZNKSt3__113move_iteratorIPPPKN3AVLIiE4NodeEE4baseB8ue170006Ev, symObjAddr: 0x6FF8, symBinAddr: 0x10000968C, symSize: 0x18 }
  - { offsetInCU: 0xEA41, offset: 0xEA41, size: 0x8, addend: 0x0, symName: __ZNSt3__113move_iteratorIPPPKN3AVLIiE4NodeEEC2B8ue170006ES7_, symObjAddr: 0x7010, symBinAddr: 0x1000096A4, symSize: 0x20 }
  - { offsetInCU: 0xEA79, offset: 0xEA79, size: 0x8, addend: 0x0, symName: __ZNSt3__19allocatorIPPKN3AVLIiE4NodeEE9constructB8ue170006IS6_JRKS6_EEEvPT_DpOT0_, symObjAddr: 0x7030, symBinAddr: 0x1000096C4, symSize: 0x28 }
  - { offsetInCU: 0xEACF, offset: 0xEACF, size: 0x8, addend: 0x0, symName: __ZNSt3__19allocatorIPKN3AVLIiE4NodeEE8allocateB8ue170006Em, symObjAddr: 0x7058, symBinAddr: 0x1000096EC, symSize: 0x58 }
  - { offsetInCU: 0xEB0D, offset: 0xEB0D, size: 0x8, addend: 0x0, symName: __ZNSt3__116allocator_traitsINS_9allocatorIPKN3AVLIiE4NodeEEEE8max_sizeB8ue170006IS7_vEEmRKS7_, symObjAddr: 0x70B0, symBinAddr: 0x100009744, symSize: 0x24 }
  - { offsetInCU: 0xEB3B, offset: 0xEB3B, size: 0x8, addend: 0x0, symName: __ZNKSt3__19allocatorIPKN3AVLIiE4NodeEE8max_sizeB8ue170006Ev, symObjAddr: 0x7168, symBinAddr: 0x1000097FC, symSize: 0x14 }
  - { offsetInCU: 0xEB6B, offset: 0xEB6B, size: 0x8, addend: 0x0, symName: __ZNKSt3__123__move_backward_trivialclB8ue170006IPPKN3AVLIiE4NodeES7_Li0EEENS_4pairIPT_PT0_EESA_SA_SC_, symObjAddr: 0x7348, symBinAddr: 0x1000099DC, symSize: 0x48 }
  - { offsetInCU: 0xEBD3, offset: 0xEBD3, size: 0x8, addend: 0x0, symName: __ZNSt3__14pairIPPPKN3AVLIiE4NodeES7_EC1B8ue170006IRS7_SA_LPv0EEEOT_OT0_, symObjAddr: 0x7458, symBinAddr: 0x100009AEC, symSize: 0x3C }
  - { offsetInCU: 0xEC31, offset: 0xEC31, size: 0x8, addend: 0x0, symName: __ZNSt3__14pairIPPPKN3AVLIiE4NodeES7_EC2B8ue170006IRS7_SA_LPv0EEEOT_OT0_, symObjAddr: 0x7494, symBinAddr: 0x100009B28, symSize: 0x34 }
  - { offsetInCU: 0xEC8F, offset: 0xEC8F, size: 0x8, addend: 0x0, symName: __ZNKSt3__16__lessIvvEclB8ue170006ImmEEbRKT_RKT0_, symObjAddr: 0x751C, symBinAddr: 0x100009BB0, symSize: 0x34 }
  - { offsetInCU: 0xECE3, offset: 0xECE3, size: 0x8, addend: 0x0, symName: __ZNSt3__114__split_bufferIPPKN3AVLIiE4NodeERNS_9allocatorIS6_EEEC2EmmS9_, symObjAddr: 0x7550, symBinAddr: 0x100009BE4, symSize: 0xD4 }
  - { offsetInCU: 0xED56, offset: 0xED56, size: 0x8, addend: 0x0, symName: __ZNSt3__117__compressed_pairIPPPKN3AVLIiE4NodeERNS_9allocatorIS6_EEEC1B8ue170006IDnSA_EEOT_OT0_, symObjAddr: 0x7624, symBinAddr: 0x100009CB8, symSize: 0x3C }
  - { offsetInCU: 0xEDAE, offset: 0xEDAE, size: 0x8, addend: 0x0, symName: __ZNSt3__117__compressed_pairIPPPKN3AVLIiE4NodeERNS_9allocatorIS6_EEEC2B8ue170006IDnSA_EEOT_OT0_, symObjAddr: 0x76A0, symBinAddr: 0x100009D34, symSize: 0x48 }
  - { offsetInCU: 0xEE06, offset: 0xEE06, size: 0x8, addend: 0x0, symName: __ZNSt3__122__compressed_pair_elemIRNS_9allocatorIPPKN3AVLIiE4NodeEEELi1ELb0EEC2B8ue170006IS9_vEEOT_, symObjAddr: 0x76E8, symBinAddr: 0x100009D7C, symSize: 0x20 }
  - { offsetInCU: 0xEE48, offset: 0xEE48, size: 0x8, addend: 0x0, symName: __ZNSt3__19allocatorIPPKN3AVLIiE4NodeEE8allocateB8ue170006Em, symObjAddr: 0x7708, symBinAddr: 0x100009D9C, symSize: 0x58 }
  - { offsetInCU: 0xEE86, offset: 0xEE86, size: 0x8, addend: 0x0, symName: __ZNSt3__116allocator_traitsINS_9allocatorIPPKN3AVLIiE4NodeEEEE8max_sizeB8ue170006IS8_vEEmRKS8_, symObjAddr: 0x7760, symBinAddr: 0x100009DF4, symSize: 0x24 }
  - { offsetInCU: 0xEEB4, offset: 0xEEB4, size: 0x8, addend: 0x0, symName: __ZNKSt3__19allocatorIPPKN3AVLIiE4NodeEE8max_sizeB8ue170006Ev, symObjAddr: 0x7784, symBinAddr: 0x100009E18, symSize: 0x14 }
  - { offsetInCU: 0xEEDA, offset: 0xEEDA, size: 0x8, addend: 0x0, symName: __ZNSt3__122__allocator_destructorINS_9allocatorIPKN3AVLIiE4NodeEEEEC2B8ue170006ERS7_m, symObjAddr: 0x7798, symBinAddr: 0x100009E2C, symSize: 0x2C }
  - { offsetInCU: 0xEF20, offset: 0xEF20, size: 0x8, addend: 0x0, symName: __ZNSt3__110unique_ptrIPPKN3AVLIiE4NodeENS_22__allocator_destructorINS_9allocatorIS5_EEEEEC2B8ue170006ILb1EvEES6_NS_16__dependent_typeINS_27__unique_ptr_deleter_sfinaeISA_EEXT_EE20__good_rval_ref_typeE, symObjAddr: 0x77C4, symBinAddr: 0x100009E58, symSize: 0x48 }
  - { offsetInCU: 0xEF71, offset: 0xEF71, size: 0x8, addend: 0x0, symName: __ZNSt3__117__compressed_pairIPPKN3AVLIiE4NodeENS_22__allocator_destructorINS_9allocatorIS5_EEEEEC1B8ue170006IRS6_SA_EEOT_OT0_, symObjAddr: 0x780C, symBinAddr: 0x100009EA0, symSize: 0x3C }
  - { offsetInCU: 0xEFC9, offset: 0xEFC9, size: 0x8, addend: 0x0, symName: __ZNSt3__117__compressed_pairIPPKN3AVLIiE4NodeENS_22__allocator_destructorINS_9allocatorIS5_EEEEEC2B8ue170006IRS6_SA_EEOT_OT0_, symObjAddr: 0x7848, symBinAddr: 0x100009EDC, symSize: 0x48 }
  - { offsetInCU: 0xF021, offset: 0xF021, size: 0x8, addend: 0x0, symName: __ZNSt3__122__compressed_pair_elemIPPKN3AVLIiE4NodeELi0ELb0EEC2B8ue170006IRS6_vEEOT_, symObjAddr: 0x7890, symBinAddr: 0x100009F24, symSize: 0x24 }
  - { offsetInCU: 0xF063, offset: 0xF063, size: 0x8, addend: 0x0, symName: __ZNSt3__122__compressed_pair_elemINS_22__allocator_destructorINS_9allocatorIPKN3AVLIiE4NodeEEEEELi1ELb0EEC2B8ue170006IS9_vEEOT_, symObjAddr: 0x78B4, symBinAddr: 0x100009F48, symSize: 0x24 }
  - { offsetInCU: 0xF0A5, offset: 0xF0A5, size: 0x8, addend: 0x0, symName: __ZNKSt3__117__compressed_pairIPPKN3AVLIiE4NodeENS_22__allocator_destructorINS_9allocatorIS5_EEEEE5firstB8ue170006Ev, symObjAddr: 0x78D8, symBinAddr: 0x100009F6C, symSize: 0x24 }
  - { offsetInCU: 0xF0CB, offset: 0xF0CB, size: 0x8, addend: 0x0, symName: __ZNKSt3__122__compressed_pair_elemIPPKN3AVLIiE4NodeELi0ELb0EE5__getB8ue170006Ev, symObjAddr: 0x78FC, symBinAddr: 0x100009F90, symSize: 0x14 }
  - { offsetInCU: 0xF0F1, offset: 0xF0F1, size: 0x8, addend: 0x0, symName: __ZNSt3__117__compressed_pairIPPKN3AVLIiE4NodeENS_22__allocator_destructorINS_9allocatorIS5_EEEEE5firstB8ue170006Ev, symObjAddr: 0x7910, symBinAddr: 0x100009FA4, symSize: 0x24 }
  - { offsetInCU: 0xF117, offset: 0xF117, size: 0x8, addend: 0x0, symName: __ZNSt3__122__compressed_pair_elemIPPKN3AVLIiE4NodeELi0ELb0EE5__getB8ue170006Ev, symObjAddr: 0x7934, symBinAddr: 0x100009FC8, symSize: 0x14 }
  - { offsetInCU: 0xF13D, offset: 0xF13D, size: 0x8, addend: 0x0, symName: __ZNSt3__117__compressed_pairIPPPKN3AVLIiE4NodeENS_9allocatorIS6_EEE5firstB8ue170006Ev, symObjAddr: 0x7948, symBinAddr: 0x100009FDC, symSize: 0x24 }
  - { offsetInCU: 0xF163, offset: 0xF163, size: 0x8, addend: 0x0, symName: __ZNSt3__122__compressed_pair_elemIPPPKN3AVLIiE4NodeELi0ELb0EE5__getB8ue170006Ev, symObjAddr: 0x796C, symBinAddr: 0x10000A000, symSize: 0x14 }
  - { offsetInCU: 0xF189, offset: 0xF189, size: 0x8, addend: 0x0, symName: __ZNSt3__117__compressed_pairIPPPKN3AVLIiE4NodeERNS_9allocatorIS6_EEE5firstB8ue170006Ev, symObjAddr: 0x7980, symBinAddr: 0x10000A014, symSize: 0x24 }
  - { offsetInCU: 0xF1AF, offset: 0xF1AF, size: 0x8, addend: 0x0, symName: __ZNSt3__110unique_ptrIPPKN3AVLIiE4NodeENS_22__allocator_destructorINS_9allocatorIS5_EEEEED2B8ue170006Ev, symObjAddr: 0x79A4, symBinAddr: 0x10000A038, symSize: 0x30 }
  - { offsetInCU: 0xF1D9, offset: 0xF1D9, size: 0x8, addend: 0x0, symName: __ZNSt3__110unique_ptrIPPKN3AVLIiE4NodeENS_22__allocator_destructorINS_9allocatorIS5_EEEEE5resetB8ue170006ES6_, symObjAddr: 0x79D4, symBinAddr: 0x10000A068, symSize: 0x78 }
  - { offsetInCU: 0xF21D, offset: 0xF21D, size: 0x8, addend: 0x0, symName: __ZNSt3__117__compressed_pairIPPKN3AVLIiE4NodeENS_22__allocator_destructorINS_9allocatorIS5_EEEEE6secondB8ue170006Ev, symObjAddr: 0x7A4C, symBinAddr: 0x10000A0E0, symSize: 0x28 }
  - { offsetInCU: 0xF243, offset: 0xF243, size: 0x8, addend: 0x0, symName: __ZNSt3__122__allocator_destructorINS_9allocatorIPKN3AVLIiE4NodeEEEEclB8ue170006EPS6_, symObjAddr: 0x7A74, symBinAddr: 0x10000A108, symSize: 0x34 }
  - { offsetInCU: 0xF277, offset: 0xF277, size: 0x8, addend: 0x0, symName: __ZNSt3__122__compressed_pair_elemINS_22__allocator_destructorINS_9allocatorIPKN3AVLIiE4NodeEEEEELi1ELb0EE5__getB8ue170006Ev, symObjAddr: 0x7AA8, symBinAddr: 0x10000A13C, symSize: 0x14 }
  - { offsetInCU: 0xF29D, offset: 0xF29D, size: 0x8, addend: 0x0, symName: __ZNSt3__114__split_bufferIPPKN3AVLIiE4NodeERNS_9allocatorIS6_EEED2Ev, symObjAddr: 0x7ABC, symBinAddr: 0x10000A150, symSize: 0x8C }
  - { offsetInCU: 0xF2C9, offset: 0xF2C9, size: 0x8, addend: 0x0, symName: __ZNSt3__114__split_bufferIPPKN3AVLIiE4NodeERNS_9allocatorIS6_EEE5clearB8ue170006Ev, symObjAddr: 0x7B48, symBinAddr: 0x10000A1DC, symSize: 0x28 }
  - { offsetInCU: 0xF2EF, offset: 0xF2EF, size: 0x8, addend: 0x0, symName: __ZNKSt3__114__split_bufferIPPKN3AVLIiE4NodeERNS_9allocatorIS6_EEE8capacityB8ue170006Ev, symObjAddr: 0x7B70, symBinAddr: 0x10000A204, symSize: 0x40 }
  - { offsetInCU: 0xF315, offset: 0xF315, size: 0x8, addend: 0x0, symName: __ZNSt3__114__split_bufferIPPKN3AVLIiE4NodeERNS_9allocatorIS6_EEE17__destruct_at_endB8ue170006EPS6_, symObjAddr: 0x7BB0, symBinAddr: 0x10000A244, symSize: 0x2C }
  - { offsetInCU: 0xF349, offset: 0xF349, size: 0x8, addend: 0x0, symName: __ZNSt3__114__split_bufferIPPKN3AVLIiE4NodeERNS_9allocatorIS6_EEE17__destruct_at_endB8ue170006EPS6_NS_17integral_constantIbLb0EEE, symObjAddr: 0x7BDC, symBinAddr: 0x10000A270, symSize: 0x80 }
  - { offsetInCU: 0xF389, offset: 0xF389, size: 0x8, addend: 0x0, symName: __ZNKSt3__114__split_bufferIPPKN3AVLIiE4NodeERNS_9allocatorIS6_EEE9__end_capB8ue170006Ev, symObjAddr: 0x7C5C, symBinAddr: 0x10000A2F0, symSize: 0x28 }
  - { offsetInCU: 0xF3AF, offset: 0xF3AF, size: 0x8, addend: 0x0, symName: __ZNKSt3__117__compressed_pairIPPPKN3AVLIiE4NodeERNS_9allocatorIS6_EEE5firstB8ue170006Ev, symObjAddr: 0x7C84, symBinAddr: 0x10000A318, symSize: 0x24 }
  - { offsetInCU: 0xF3D5, offset: 0xF3D5, size: 0x8, addend: 0x0, symName: __ZNSt3__19allocatorIPKN3AVLIiE4NodeEE9constructB8ue170006IS5_JRKS5_EEEvPT_DpOT0_, symObjAddr: 0x7CA8, symBinAddr: 0x10000A33C, symSize: 0x28 }
  - { offsetInCU: 0xF42B, offset: 0xF42B, size: 0x8, addend: 0x0, symName: __ZNSt3__15dequeIPKN3AVLIiE4NodeENS_9allocatorIS5_EEE5frontEv, symObjAddr: 0x7CD0, symBinAddr: 0x10000A364, symSize: 0x50 }
  - { offsetInCU: 0xF453, offset: 0xF453, size: 0x8, addend: 0x0, symName: __ZNSt3__15dequeIPKN3AVLIiE4NodeENS_9allocatorIS5_EEE9pop_frontEv, symObjAddr: 0x7D20, symBinAddr: 0x10000A3B4, symSize: 0xD4 }
  - { offsetInCU: 0xF4A8, offset: 0xF4A8, size: 0x8, addend: 0x0, symName: __ZNKSt3__15dequeIPKN3AVLIiE4NodeENS_9allocatorIS5_EEE23__annotate_shrink_frontB8ue170006Emm, symObjAddr: 0x7DF4, symBinAddr: 0x10000A488, symSize: 0x70 }
  - { offsetInCU: 0xF4EC, offset: 0xF4EC, size: 0x8, addend: 0x0, symName: __ZNSt3__15dequeIPKN3AVLIiE4NodeENS_9allocatorIS5_EEE26__maybe_remove_front_spareB8ue170006Eb, symObjAddr: 0x7E64, symBinAddr: 0x10000A4F8, symSize: 0xEC }
  - { offsetInCU: 0xF521, offset: 0xF521, size: 0x8, addend: 0x0, symName: __ZNKSt3__15dequeIPKN3AVLIiE4NodeENS_9allocatorIS5_EEE20__front_spare_blocksB8ue170006Ev, symObjAddr: 0x7F50, symBinAddr: 0x10000A5E4, symSize: 0x2C }
  - { offsetInCU: 0xF547, offset: 0xF547, size: 0x8, addend: 0x0, symName: __ZNSt3__15dequeIPKN3AVLIiE4NodeENS_9allocatorIS5_EEE9push_backEOS5_, symObjAddr: 0x7F7C, symBinAddr: 0x10000A610, symSize: 0xAC }
  - { offsetInCU: 0xF592, offset: 0xF592, size: 0x8, addend: 0x0, symName: __ZNSt3__116allocator_traitsINS_9allocatorIPKN3AVLIiE4NodeEEEE9constructB8ue170006IS6_JS6_EvEEvRS7_PT_DpOT0_, symObjAddr: 0x8028, symBinAddr: 0x10000A6BC, symSize: 0x34 }
  - { offsetInCU: 0xF5E9, offset: 0xF5E9, size: 0x8, addend: 0x0, symName: __ZNSt3__19allocatorIPKN3AVLIiE4NodeEE9constructB8ue170006IS5_JS5_EEEvPT_DpOT0_, symObjAddr: 0x805C, symBinAddr: 0x10000A6F0, symSize: 0x28 }
  - { offsetInCU: 0xF63F, offset: 0xF63F, size: 0x8, addend: 0x0, symName: __ZNSt3__18__iom_t4IcEC1B8ue170006Ec, symObjAddr: 0x8084, symBinAddr: 0x10000A718, symSize: 0x34 }
  - { offsetInCU: 0xF677, offset: 0xF677, size: 0x8, addend: 0x0, symName: __ZNSt3__18__iom_t4IcEC2B8ue170006Ec, symObjAddr: 0x80B8, symBinAddr: 0x10000A74C, symSize: 0x20 }
  - { offsetInCU: 0xF6AF, offset: 0xF6AF, size: 0x8, addend: 0x0, symName: __ZNSt3__19basic_iosIcNS_11char_traitsIcEEE4fillB8ue170006Ec, symObjAddr: 0x80D8, symBinAddr: 0x10000A76C, symSize: 0x74 }
  - { offsetInCU: 0xF6F5, offset: 0xF6F5, size: 0x8, addend: 0x0, symName: __ZN3AVLIiE3addERPNS0_4NodeEi, symObjAddr: 0x814C, symBinAddr: 0x10000A7E0, symSize: 0x18C }
  - { offsetInCU: 0xF745, offset: 0xF745, size: 0x8, addend: 0x0, symName: __ZN3AVLIiE4NodeC1Ei, symObjAddr: 0x82D8, symBinAddr: 0x10000A96C, symSize: 0x34 }
  - { offsetInCU: 0xF77D, offset: 0xF77D, size: 0x8, addend: 0x0, symName: __ZN3AVLIiE9rebalanceERPNS0_4NodeE, symObjAddr: 0x830C, symBinAddr: 0x10000A9A0, symSize: 0x124 }
  - { offsetInCU: 0xF7F7, offset: 0xF7F7, size: 0x8, addend: 0x0, symName: __ZN3AVLIiE12updateHeightERPNS0_4NodeE, symObjAddr: 0x8430, symBinAddr: 0x10000AAC4, symSize: 0x84 }
  - { offsetInCU: 0xF82B, offset: 0xF82B, size: 0x8, addend: 0x0, symName: __ZN3AVLIiE4NodeC2Ei, symObjAddr: 0x84B4, symBinAddr: 0x10000AB48, symSize: 0x30 }
  - { offsetInCU: 0xF863, offset: 0xF863, size: 0x8, addend: 0x0, symName: __ZN3AVLIiE10getBalanceEPNS0_4NodeE, symObjAddr: 0x84E4, symBinAddr: 0x10000AB78, symSize: 0x58 }
  - { offsetInCU: 0xF897, offset: 0xF897, size: 0x8, addend: 0x0, symName: __ZN3AVLIiE12promote_leftERPNS0_4NodeE, symObjAddr: 0x853C, symBinAddr: 0x10000ABD0, symSize: 0x8C }
  - { offsetInCU: 0xF8D9, offset: 0xF8D9, size: 0x8, addend: 0x0, symName: __ZN3AVLIiE13promote_rightERPNS0_4NodeE, symObjAddr: 0x85C8, symBinAddr: 0x10000AC5C, symSize: 0x88 }
  - { offsetInCU: 0xF91B, offset: 0xF91B, size: 0x8, addend: 0x0, symName: __ZN3AVLIiE9getHeightEPNS0_4NodeE, symObjAddr: 0x8650, symBinAddr: 0x10000ACE4, symSize: 0x44 }
  - { offsetInCU: 0xF94F, offset: 0xF94F, size: 0x8, addend: 0x0, symName: __ZN3AVLIiE6removeERPNS0_4NodeEi, symObjAddr: 0x8694, symBinAddr: 0x10000AD28, symSize: 0x258 }
  - { offsetInCU: 0xF9F3, offset: 0xF9F3, size: 0x8, addend: 0x0, symName: __ZN3AVLIiE23get_inorder_predecessorEPNS0_4NodeE, symObjAddr: 0x88EC, symBinAddr: 0x10000AF80, symSize: 0x50 }
  - { offsetInCU: 0xFA27, offset: 0xFA27, size: 0x8, addend: 0x0, symName: __ZNK3AVLIiE8findItemEPKNS0_4NodeEi, symObjAddr: 0x893C, symBinAddr: 0x10000AFD0, symSize: 0xF0 }
  - { offsetInCU: 0xFA69, offset: 0xFA69, size: 0x8, addend: 0x0, symName: __ZN3AVLIiE9clearTreeERPNS0_4NodeE, symObjAddr: 0x8A2C, symBinAddr: 0x10000B0C0, symSize: 0x90 }
  - { offsetInCU: 0xFA9D, offset: 0xFA9D, size: 0x8, addend: 0x0, symName: __ZN3AVLIiEC2Ev, symObjAddr: 0x8ABC, symBinAddr: 0x10000B150, symSize: 0x1C }
  - { offsetInCU: 0xFAC7, offset: 0xFAC7, size: 0x8, addend: 0x0, symName: __ZN3AVLIiED2Ev, symObjAddr: 0x8AD8, symBinAddr: 0x10000B16C, symSize: 0x34 }
...
