---
triple:          'arm64-apple-darwin'
binary-path:     '/Users/merleth/Documents/CS 235/cs235-assignments/Unit05-Mechanics-of-trees/homework5a-bst-traversal/tests'
relocations:
  - { offsetInCU: 0x4CCB, offset: 0x4CCB, size: 0x8, addend: 0x0, symName: __ZNSt3__124__put_character_sequenceB8ue170006IcNS_11char_traitsIcEEEERNS_13basic_ostreamIT_T0_EES7_PKS4_m, symObjAddr: 0x3238, symBinAddr: 0x100005768, symSize: 0x1EC }
  - { offsetInCU: 0x899C, offset: 0x899C, size: 0x8, addend: 0x0, symName: __ZNSt3__1lsB8ue170006INS_11char_traitsIcEEEERNS_13basic_ostreamIcT_EES6_PKc, symObjAddr: 0x1F4, symBinAddr: 0x100002724, symSize: 0x48 }
  - { offsetInCU: 0x89E2, offset: 0x89E2, size: 0x8, addend: 0x0, symName: __ZNSt3__1lsB8ue170006INS_11char_traitsIcEEEERNS_13basic_ostreamIcT_EES6_c, symObjAddr: 0x23C, symBinAddr: 0x10000276C, symSize: 0x34 }
  - { offsetInCU: 0x8A28, offset: 0x8A28, size: 0x8, addend: 0x0, symName: __ZNSt3__14endlB8ue170006IcNS_11char_traitsIcEEEERNS_13basic_ostreamIT_T0_EES7_, symObjAddr: 0x29C, symBinAddr: 0x1000027CC, symSize: 0x58 }
  - { offsetInCU: 0x8A68, offset: 0x8A68, size: 0x8, addend: 0x0, symName: __ZNSt3__13maxB8ue170006IiEERKT_S3_S3_, symObjAddr: 0x378, symBinAddr: 0x1000028A8, symSize: 0x2C }
  - { offsetInCU: 0x8CB6, offset: 0x8CB6, size: 0x8, addend: 0x0, symName: __ZNSt3__1lsB8ue170006INS_11char_traitsIcEEEERNS_13basic_ostreamIcT_EES6_RKNS_8__iom_t4IcEE, symObjAddr: 0x82C, symBinAddr: 0x100002D5C, symSize: 0x40 }
  - { offsetInCU: 0x8CF9, offset: 0x8CF9, size: 0x8, addend: 0x0, symName: __ZNSt3__1lsB8ue170006IcNS_11char_traitsIcEEEERNS_13basic_ostreamIT_T0_EES7_RKNS_8__iom_t6E, symObjAddr: 0x86C, symBinAddr: 0x100002D9C, symSize: 0x40 }
  - { offsetInCU: 0x8D48, offset: 0x8D48, size: 0x8, addend: 0x0, symName: __ZNSt3__14setwB8ue170006Ei, symObjAddr: 0x8AC, symBinAddr: 0x100002DDC, symSize: 0x2C }
  - { offsetInCU: 0x8D76, offset: 0x8D76, size: 0x8, addend: 0x0, symName: __ZNSt3__15rightB8ue170006ERNS_8ios_baseE, symObjAddr: 0x918, symBinAddr: 0x100002E48, symSize: 0x30 }
  - { offsetInCU: 0x8DA4, offset: 0x8DA4, size: 0x8, addend: 0x0, symName: __ZNSt3__17setfillB8ue170006IcEENS_8__iom_t4IT_EES2_, symObjAddr: 0x948, symBinAddr: 0x100002E78, symSize: 0x2C }
  - { offsetInCU: 0x972B, offset: 0x972B, size: 0x8, addend: 0x0, symName: __ZNSt3__19boolalphaB8ue170006ERNS_8ios_baseE, symObjAddr: 0x1288, symBinAddr: 0x1000037B8, symSize: 0x2C }
  - { offsetInCU: 0x9759, offset: 0x9759, size: 0x8, addend: 0x0, symName: __ZNSt3__13maxB8ue170006IiNS_6__lessIvvEEEERKT_S5_S5_T0_, symObjAddr: 0x19BC, symBinAddr: 0x100003EEC, symSize: 0x54 }
  - { offsetInCU: 0x9829, offset: 0x9829, size: 0x8, addend: 0x0, symName: __ZNSt3__1neB8ue170006ERKNS_16__deque_iteratorIPK4NodePS3_RS3_PS4_lLl512EEES9_, symObjAddr: 0x20C0, symBinAddr: 0x1000045F0, symSize: 0x34 }
  - { offsetInCU: 0x9866, offset: 0x9866, size: 0x8, addend: 0x0, symName: __ZNSt3__1eqB8ue170006ERKNS_16__deque_iteratorIPK4NodePS3_RS3_PS4_lLl512EEES9_, symObjAddr: 0x2418, symBinAddr: 0x100004948, symSize: 0x30 }
  - { offsetInCU: 0x98A3, offset: 0x98A3, size: 0x8, addend: 0x0, symName: __ZNSt3__112__to_addressB8ue170006IPK4NodeEEPT_S5_, symObjAddr: 0x2AA8, symBinAddr: 0x100004FD8, symSize: 0x14 }
  - { offsetInCU: 0x98D8, offset: 0x98D8, size: 0x8, addend: 0x0, symName: __ZNSt3__119__libcpp_deallocateB8ue170006EPvmm, symObjAddr: 0x2C14, symBinAddr: 0x100005144, symSize: 0x60 }
  - { offsetInCU: 0x993D, offset: 0x993D, size: 0x8, addend: 0x0, symName: __ZNSt3__124__is_overaligned_for_newB8ue170006Em, symObjAddr: 0x2C74, symBinAddr: 0x1000051A4, symSize: 0x20 }
  - { offsetInCU: 0x996B, offset: 0x996B, size: 0x8, addend: 0x0, symName: __ZNSt3__127__do_deallocate_handle_sizeB8ue170006IJSt11align_val_tEEEvPvmDpT_, symObjAddr: 0x2C94, symBinAddr: 0x1000051C4, symSize: 0x30 }
  - { offsetInCU: 0x99BE, offset: 0x99BE, size: 0x8, addend: 0x0, symName: __ZNSt3__127__do_deallocate_handle_sizeB8ue170006IJEEEvPvmDpT_, symObjAddr: 0x2CC4, symBinAddr: 0x1000051F4, symSize: 0x28 }
  - { offsetInCU: 0x99FC, offset: 0x99FC, size: 0x8, addend: 0x0, symName: __ZNSt3__124__libcpp_operator_deleteB8ue170006IJPvSt11align_val_tEEEvDpT_, symObjAddr: 0x2CEC, symBinAddr: 0x10000521C, symSize: 0x2C }
  - { offsetInCU: 0x9A45, offset: 0x9A45, size: 0x8, addend: 0x0, symName: __ZNSt3__124__libcpp_operator_deleteB8ue170006IJPvEEEvDpT_, symObjAddr: 0x2D18, symBinAddr: 0x100005248, symSize: 0x24 }
  - { offsetInCU: 0x9A7A, offset: 0x9A7A, size: 0x8, addend: 0x0, symName: __ZNSt3__112__to_addressB8ue170006IPPK4NodeEEPT_S6_, symObjAddr: 0x2F9C, symBinAddr: 0x1000054CC, symSize: 0x14 }
  - { offsetInCU: 0x9AAF, offset: 0x9AAF, size: 0x8, addend: 0x0, symName: __ZNSt3__116__pad_and_outputB8ue170006IcNS_11char_traitsIcEEEENS_19ostreambuf_iteratorIT_T0_EES6_PKS4_S8_S8_RNS_8ios_baseES4_, symObjAddr: 0x3474, symBinAddr: 0x1000059A4, symSize: 0x240 }
  - { offsetInCU: 0x9B7E, offset: 0x9B7E, size: 0x8, addend: 0x0, symName: __ZNSt3__112__to_addressB8ue170006IcEEPT_S2_, symObjAddr: 0x39DC, symBinAddr: 0x100005F0C, symSize: 0x14 }
  - { offsetInCU: 0x9BE6, offset: 0x9BE6, size: 0x8, addend: 0x0, symName: __ZNSt3__19use_facetB8ue170006INS_5ctypeIcEEEERKT_RKNS_6localeE, symObjAddr: 0x3C94, symBinAddr: 0x1000061C4, symSize: 0x2C }
  - { offsetInCU: 0xA0B3, offset: 0xA0B3, size: 0x8, addend: 0x0, symName: __ZNSt3__118__constexpr_strlenB8ue170006EPKc, symObjAddr: 0x3D2C, symBinAddr: 0x10000625C, symSize: 0x24 }
  - { offsetInCU: 0xA0DF, offset: 0xA0DF, size: 0x8, addend: 0x0, symName: __ZNSt3__13maxB8ue170006ImEERKT_S3_S3_, symObjAddr: 0x4D8C, symBinAddr: 0x1000072BC, symSize: 0x2C }
  - { offsetInCU: 0xA57B, offset: 0xA57B, size: 0x8, addend: 0x0, symName: __ZNSt3__14swapB8ue170006IPPPK4NodeEENS_9enable_ifIXaasr21is_move_constructibleIT_EE5valuesr18is_move_assignableIS7_EE5valueEvE4typeERS7_SA_, symObjAddr: 0x539C, symBinAddr: 0x1000078CC, symSize: 0x3C }
  - { offsetInCU: 0xA5CC, offset: 0xA5CC, size: 0x8, addend: 0x0, symName: __ZNSt3__14moveB8ue170006IPPPK4NodeS5_EET0_T_S7_S6_, symObjAddr: 0x5480, symBinAddr: 0x1000079B0, symSize: 0x40 }
  - { offsetInCU: 0xA642, offset: 0xA642, size: 0x8, addend: 0x0, symName: __ZNSt3__16__moveB8ue170006INS_17_ClassicAlgPolicyEPPPK4NodeS6_S6_EENS_4pairIT0_T2_EES8_T1_S9_, symObjAddr: 0x5588, symBinAddr: 0x100007AB8, symSize: 0x44 }
  - { offsetInCU: 0xA6AE, offset: 0xA6AE, size: 0x8, addend: 0x0, symName: __ZNSt3__123__dispatch_copy_or_moveB8ue170006INS_17_ClassicAlgPolicyENS_11__move_loopIS1_EENS_14__move_trivialEPPPK4NodeS9_S9_EENS_4pairIT2_T4_EESB_T3_SC_, symObjAddr: 0x55CC, symBinAddr: 0x100007AFC, symSize: 0x44 }
  - { offsetInCU: 0xA72C, offset: 0xA72C, size: 0x8, addend: 0x0, symName: __ZNSt3__121__unwrap_and_dispatchB8ue170006INS_10__overloadINS_11__move_loopINS_17_ClassicAlgPolicyEEENS_14__move_trivialEEEPPPK4NodeSB_SB_Li0EEENS_4pairIT0_T2_EESD_T1_SE_, symObjAddr: 0x5610, symBinAddr: 0x100007B40, symSize: 0xB4 }
  - { offsetInCU: 0xA7BA, offset: 0xA7BA, size: 0x8, addend: 0x0, symName: __ZNSt3__114__unwrap_rangeB8ue170006IPPPK4NodeS5_EENS_4pairIT0_S7_EET_S9_, symObjAddr: 0x56C4, symBinAddr: 0x100007BF4, symSize: 0x60 }
  - { offsetInCU: 0xA97E, offset: 0xA97E, size: 0x8, addend: 0x0, symName: __ZNSt3__113__unwrap_iterB8ue170006IPPPK4NodeNS_18__unwrap_iter_implIS5_Lb1EEELi0EEEDTclsrT0_8__unwrapclsr3stdE7declvalIT_EEEES9_, symObjAddr: 0x576C, symBinAddr: 0x100007C9C, symSize: 0x24 }
  - { offsetInCU: 0xA9C2, offset: 0xA9C2, size: 0x8, addend: 0x0, symName: __ZNSt3__19make_pairB8ue170006IPPPK4NodeS5_EENS_4pairINS_18__unwrap_ref_decayIT_E4typeENS7_IT0_E4typeEEEOS8_OSB_, symObjAddr: 0x5790, symBinAddr: 0x100007CC0, symSize: 0x38 }
  - { offsetInCU: 0xAA11, offset: 0xAA11, size: 0x8, addend: 0x0, symName: __ZNSt3__114__rewrap_rangeB8ue170006IPPPK4NodeS5_EET_S6_T0_, symObjAddr: 0x57C8, symBinAddr: 0x100007CF8, symSize: 0x2C }
  - { offsetInCU: 0xAA5D, offset: 0xAA5D, size: 0x8, addend: 0x0, symName: __ZNSt3__113__rewrap_iterB8ue170006IPPPK4NodeS5_NS_18__unwrap_iter_implIS5_Lb1EEEEET_S8_T0_, symObjAddr: 0x57F4, symBinAddr: 0x100007D24, symSize: 0x3C }
  - { offsetInCU: 0xAAB2, offset: 0xAAB2, size: 0x8, addend: 0x0, symName: __ZNSt3__119__copy_trivial_implB8ue170006IPPK4NodeS4_EENS_4pairIPT_PT0_EES7_S7_S9_, symObjAddr: 0x5830, symBinAddr: 0x100007D60, symSize: 0x80 }
  - { offsetInCU: 0xAB1A, offset: 0xAB1A, size: 0x8, addend: 0x0, symName: __ZNSt3__119__constexpr_memmoveB8ue170006IPPK4NodeS4_Li0EEEPT_S6_PT0_NS_15__element_countE, symObjAddr: 0x58B0, symBinAddr: 0x100007DE0, symSize: 0x64 }
  - { offsetInCU: 0xAB88, offset: 0xAB88, size: 0x8, addend: 0x0, symName: __ZNSt3__19make_pairB8ue170006IRPPPK4NodeS5_EENS_4pairINS_18__unwrap_ref_decayIT_E4typeENS8_IT0_E4typeEEEOS9_OSC_, symObjAddr: 0x5914, symBinAddr: 0x100007E44, symSize: 0x38 }
  - { offsetInCU: 0xAC2A, offset: 0xAC2A, size: 0x8, addend: 0x0, symName: __ZNSt3__18distanceB8ue170006INS_13move_iteratorIPPPK4NodeEEEENS_15iterator_traitsIT_E15difference_typeES9_S9_, symObjAddr: 0x5B7C, symBinAddr: 0x1000080AC, symSize: 0x3C }
  - { offsetInCU: 0xAC6D, offset: 0xAC6D, size: 0x8, addend: 0x0, symName: __ZNSt3__110__distanceB8ue170006INS_13move_iteratorIPPPK4NodeEEEENS_15iterator_traitsIT_E15difference_typeES9_S9_NS_26random_access_iterator_tagE, symObjAddr: 0x5D80, symBinAddr: 0x1000082B0, symSize: 0x30 }
  - { offsetInCU: 0xACBA, offset: 0xACBA, size: 0x8, addend: 0x0, symName: __ZNSt3__1miB8ue170006IPPPK4NodeS5_EEDTmicldtfp_4baseEcldtfp0_4baseEERKNS_13move_iteratorIT_EERKNS7_IT0_EE, symObjAddr: 0x5DB0, symBinAddr: 0x1000082E0, symSize: 0x48 }
  - { offsetInCU: 0xAD09, offset: 0xAD09, size: 0x8, addend: 0x0, symName: __ZNSt3__117__libcpp_allocateB8ue170006Emm, symObjAddr: 0x5F08, symBinAddr: 0x100008438, symSize: 0x60 }
  - { offsetInCU: 0xAD63, offset: 0xAD63, size: 0x8, addend: 0x0, symName: __ZNSt3__121__libcpp_operator_newB8ue170006IJmSt11align_val_tEEEPvDpT_, symObjAddr: 0x5F7C, symBinAddr: 0x1000084AC, symSize: 0x2C }
  - { offsetInCU: 0xADB0, offset: 0xADB0, size: 0x8, addend: 0x0, symName: __ZNSt3__121__libcpp_operator_newB8ue170006IJmEEEPvDpT_, symObjAddr: 0x5FA8, symBinAddr: 0x1000084D8, symSize: 0x24 }
  - { offsetInCU: 0xADE9, offset: 0xADE9, size: 0x8, addend: 0x0, symName: __ZNSt3__113move_backwardB8ue170006IPPPK4NodeS5_EET0_T_S7_S6_, symObjAddr: 0x5FCC, symBinAddr: 0x1000084FC, symSize: 0x40 }
  - { offsetInCU: 0xAE43, offset: 0xAE43, size: 0x8, addend: 0x0, symName: __ZNSt3__115__move_backwardB8ue170006INS_17_ClassicAlgPolicyEPPPK4NodeS6_S6_EENS_4pairIT0_T2_EES8_T1_S9_, symObjAddr: 0x600C, symBinAddr: 0x10000853C, symSize: 0x44 }
  - { offsetInCU: 0xAEAF, offset: 0xAEAF, size: 0x8, addend: 0x0, symName: __ZNSt3__123__dispatch_copy_or_moveB8ue170006INS_17_ClassicAlgPolicyENS_20__move_backward_loopIS1_EENS_23__move_backward_trivialEPPPK4NodeS9_S9_EENS_4pairIT2_T4_EESB_T3_SC_, symObjAddr: 0x6050, symBinAddr: 0x100008580, symSize: 0x44 }
  - { offsetInCU: 0xAF2D, offset: 0xAF2D, size: 0x8, addend: 0x0, symName: __ZNSt3__121__unwrap_and_dispatchB8ue170006INS_10__overloadINS_20__move_backward_loopINS_17_ClassicAlgPolicyEEENS_23__move_backward_trivialEEEPPPK4NodeSB_SB_Li0EEENS_4pairIT0_T2_EESD_T1_SE_, symObjAddr: 0x6094, symBinAddr: 0x1000085C4, symSize: 0xB4 }
  - { offsetInCU: 0xB001, offset: 0xB001, size: 0x8, addend: 0x0, symName: __ZNSt3__128__copy_backward_trivial_implB8ue170006IPPK4NodeS4_EENS_4pairIPT_PT0_EES7_S7_S9_, symObjAddr: 0x6190, symBinAddr: 0x1000086C0, symSize: 0x90 }
  - { offsetInCU: 0xB069, offset: 0xB069, size: 0x8, addend: 0x0, symName: __ZNSt3__19make_pairB8ue170006IRPPPK4NodeS6_EENS_4pairINS_18__unwrap_ref_decayIT_E4typeENS8_IT0_E4typeEEEOS9_OSC_, symObjAddr: 0x6220, symBinAddr: 0x100008750, symSize: 0x38 }
  - { offsetInCU: 0xB0B8, offset: 0xB0B8, size: 0x8, addend: 0x0, symName: __ZNSt3__13maxB8ue170006ImNS_6__lessIvvEEEERKT_S5_S5_T0_, symObjAddr: 0x62C8, symBinAddr: 0x1000087F8, symSize: 0x54 }
  - { offsetInCU: 0xB112, offset: 0xB112, size: 0x8, addend: 0x0, symName: __ZNSt3__119__allocate_at_leastB8ue170006INS_9allocatorIPPK4NodeEEEENS_19__allocation_resultINS_16allocator_traitsIT_E7pointerEEERS9_m, symObjAddr: 0x6460, symBinAddr: 0x100008990, symSize: 0x40 }
  - { offsetInCU: 0xB155, offset: 0xB155, size: 0x8, addend: 0x0, symName: __ZNSt3__112__to_addressB8ue170006IP4NodeEEPT_S4_, symObjAddr: 0x73F8, symBinAddr: 0x100009928, symSize: 0x14 }
  - { offsetInCU: 0xB18A, offset: 0xB18A, size: 0x8, addend: 0x0, symName: __ZNSt3__13minB8ue170006ImEERKT_S3_S3_, symObjAddr: 0x773C, symBinAddr: 0x100009C6C, symSize: 0x2C }
  - { offsetInCU: 0xB3B7, offset: 0xB3B7, size: 0x8, addend: 0x0, symName: __ZNSt3__13minB8ue170006ImNS_6__lessIvvEEEERKT_S5_S5_T0_, symObjAddr: 0x77C8, symBinAddr: 0x100009CF8, symSize: 0x54 }
  - { offsetInCU: 0xB411, offset: 0xB411, size: 0x8, addend: 0x0, symName: __ZNSt3__120__throw_length_errorB8ue170006EPKc, symObjAddr: 0x7870, symBinAddr: 0x100009DA0, symSize: 0x64 }
  - { offsetInCU: 0xB43B, offset: 0xB43B, size: 0x8, addend: 0x0, symName: __ZNSt3__119__allocate_at_leastB8ue170006INS_9allocatorIP4NodeEEEENS_19__allocation_resultINS_16allocator_traitsIT_E7pointerEEERS7_m, symObjAddr: 0x7A64, symBinAddr: 0x100009F94, symSize: 0x40 }
  - { offsetInCU: 0xB47E, offset: 0xB47E, size: 0x8, addend: 0x0, symName: __ZNSt3__142__uninitialized_allocator_move_if_noexceptB8ue170006INS_9allocatorIP4NodeEENS_16reverse_iteratorIPS3_EES7_S3_vEET1_RT_T0_SB_S8_, symObjAddr: 0x7C2C, symBinAddr: 0x10000A15C, symSize: 0x78 }
  - { offsetInCU: 0xB4FB, offset: 0xB4FB, size: 0x8, addend: 0x0, symName: __ZNSt3__14swapB8ue170006IPP4NodeEENS_9enable_ifIXaasr21is_move_constructibleIT_EE5valuesr18is_move_assignableIS5_EE5valueEvE4typeERS5_S8_, symObjAddr: 0x7CF0, symBinAddr: 0x10000A220, symSize: 0x3C }
  - { offsetInCU: 0xB54C, offset: 0xB54C, size: 0x8, addend: 0x0, symName: __ZNSt3__14moveB8ue170006INS_16reverse_iteratorIPP4NodeEES5_EET0_T_S7_S6_, symObjAddr: 0x7E00, symBinAddr: 0x10000A330, symSize: 0x78 }
  - { offsetInCU: 0xB5A6, offset: 0xB5A6, size: 0x8, addend: 0x0, symName: __ZNSt3__16__moveB8ue170006INS_17_ClassicAlgPolicyENS_16reverse_iteratorIPP4NodeEES6_S6_EENS_4pairIT0_T2_EES8_T1_S9_, symObjAddr: 0x7E78, symBinAddr: 0x10000A3A8, symSize: 0x64 }
  - { offsetInCU: 0xB612, offset: 0xB612, size: 0x8, addend: 0x0, symName: __ZNSt3__123__dispatch_copy_or_moveB8ue170006INS_17_ClassicAlgPolicyENS_11__move_loopIS1_EENS_14__move_trivialENS_16reverse_iteratorIPP4NodeEES9_S9_EENS_4pairIT2_T4_EESB_T3_SC_, symObjAddr: 0x7EDC, symBinAddr: 0x10000A40C, symSize: 0x64 }
  - { offsetInCU: 0xB690, offset: 0xB690, size: 0x8, addend: 0x0, symName: __ZNSt3__121__unwrap_and_dispatchB8ue170006INS_10__overloadINS_11__move_loopINS_17_ClassicAlgPolicyEEENS_14__move_trivialEEENS_16reverse_iteratorIPP4NodeEESB_SB_Li0EEENS_4pairIT0_T2_EESD_T1_SE_, symObjAddr: 0x7F40, symBinAddr: 0x10000A470, symSize: 0x12C }
  - { offsetInCU: 0xB720, offset: 0xB720, size: 0x8, addend: 0x0, symName: __ZNSt3__114__unwrap_rangeB8ue170006INS_16reverse_iteratorIPP4NodeEES5_EENS_4pairIT0_S7_EET_S9_, symObjAddr: 0x806C, symBinAddr: 0x10000A59C, symSize: 0x84 }
  - { offsetInCU: 0xB89B, offset: 0xB89B, size: 0x8, addend: 0x0, symName: __ZNSt3__113__unwrap_iterB8ue170006INS_16reverse_iteratorIPP4NodeEENS_18__unwrap_iter_implIS5_Lb0EEELi0EEEDTclsrT0_8__unwrapclsr3stdE7declvalIT_EEEES9_, symObjAddr: 0x8190, symBinAddr: 0x10000A6C0, symSize: 0x44 }
  - { offsetInCU: 0xB8DF, offset: 0xB8DF, size: 0x8, addend: 0x0, symName: __ZNSt3__19make_pairB8ue170006INS_16reverse_iteratorIPP4NodeEES5_EENS_4pairINS_18__unwrap_ref_decayIT_E4typeENS7_IT0_E4typeEEEOS8_OSB_, symObjAddr: 0x81D4, symBinAddr: 0x10000A704, symSize: 0x38 }
  - { offsetInCU: 0xB92E, offset: 0xB92E, size: 0x8, addend: 0x0, symName: __ZNSt3__114__rewrap_rangeB8ue170006INS_16reverse_iteratorIPP4NodeEES5_EET_S6_T0_, symObjAddr: 0x820C, symBinAddr: 0x10000A73C, symSize: 0x5C }
  - { offsetInCU: 0xB97A, offset: 0xB97A, size: 0x8, addend: 0x0, symName: __ZNSt3__113__rewrap_iterB8ue170006INS_16reverse_iteratorIPP4NodeEES5_NS_18__unwrap_iter_implIS5_Lb0EEEEET_S8_T0_, symObjAddr: 0x8268, symBinAddr: 0x10000A798, symSize: 0x74 }
  - { offsetInCU: 0xB9CF, offset: 0xB9CF, size: 0x8, addend: 0x0, symName: __ZNSt3__1neB8ue170006IPP4NodeS3_EEbRKNS_16reverse_iteratorIT_EERKNS4_IT0_EE, symObjAddr: 0x82DC, symBinAddr: 0x10000A80C, symSize: 0x48 }
  - { offsetInCU: 0xBE82, offset: 0xBE82, size: 0x8, addend: 0x0, symName: __ZSt28__throw_bad_array_new_lengthB8ue170006v, symObjAddr: 0x5ED4, symBinAddr: 0x100008404, symSize: 0x34 }
  - { offsetInCU: 0xC70B, offset: 0xC70B, size: 0x8, addend: 0x0, symName: __ZNSt3__16vectorIP4NodeNS_9allocatorIS2_EEE26__swap_out_circular_bufferERNS_14__split_bufferIS2_RS4_EE, symObjAddr: 0x7600, symBinAddr: 0x100009B30, symSize: 0x110 }
  - { offsetInCU: 0xEACC, offset: 0xEACC, size: 0x8, addend: 0x0, symName: __Z4findP4Nodei, symObjAddr: 0x0, symBinAddr: 0x100002530, symSize: 0xD8 }
  - { offsetInCU: 0xEB07, offset: 0xEB07, size: 0x8, addend: 0x0, symName: __Z22ugly_print_tree_helperPK4Node, symObjAddr: 0xD8, symBinAddr: 0x100002608, symSize: 0x11C }
  - { offsetInCU: 0xEB4C, offset: 0xEB4C, size: 0x8, addend: 0x0, symName: __ZNSt3__113basic_ostreamIcNS_11char_traitsIcEEElsB8ue170006EPFRS3_S4_E, symObjAddr: 0x270, symBinAddr: 0x1000027A0, symSize: 0x2C }
  - { offsetInCU: 0xEB7F, offset: 0xEB7F, size: 0x8, addend: 0x0, symName: __Z11tree_heightPK4Node, symObjAddr: 0x2F4, symBinAddr: 0x100002824, symSize: 0x84 }
  - { offsetInCU: 0xEBAC, offset: 0xEBAC, size: 0x8, addend: 0x0, symName: __Z12print_spacesi, symObjAddr: 0x3A4, symBinAddr: 0x1000028D4, symSize: 0x60 }
  - { offsetInCU: 0xEBF1, offset: 0xEBF1, size: 0x8, addend: 0x0, symName: __Z17pretty_print_treePK4Node, symObjAddr: 0x404, symBinAddr: 0x100002934, symSize: 0x310 }
  - { offsetInCU: 0xECF4, offset: 0xECF4, size: 0x8, addend: 0x0, symName: __ZNSt3__15queueIPK4NodeNS_5dequeIS3_NS_9allocatorIS3_EEEEEC1B8ue170006Ev, symObjAddr: 0x714, symBinAddr: 0x100002C44, symSize: 0x2C }
  - { offsetInCU: 0xED1E, offset: 0xED1E, size: 0x8, addend: 0x0, symName: __ZNSt3__15queueIPK4NodeNS_5dequeIS3_NS_9allocatorIS3_EEEEE4pushB8ue170006ERKS3_, symObjAddr: 0x740, symBinAddr: 0x100002C70, symSize: 0x2C }
  - { offsetInCU: 0xED52, offset: 0xED52, size: 0x8, addend: 0x0, symName: __Z20num_spaces_for_levelii, symObjAddr: 0x76C, symBinAddr: 0x100002C9C, symSize: 0x30 }
  - { offsetInCU: 0xED8C, offset: 0xED8C, size: 0x8, addend: 0x0, symName: __Z18num_nodes_in_leveli, symObjAddr: 0x79C, symBinAddr: 0x100002CCC, symSize: 0x1C }
  - { offsetInCU: 0xEDB9, offset: 0xEDB9, size: 0x8, addend: 0x0, symName: __ZNSt3__15queueIPK4NodeNS_5dequeIS3_NS_9allocatorIS3_EEEEE5frontB8ue170006Ev, symObjAddr: 0x7B8, symBinAddr: 0x100002CE8, symSize: 0x24 }
  - { offsetInCU: 0xEDDF, offset: 0xEDDF, size: 0x8, addend: 0x0, symName: __ZNSt3__15queueIPK4NodeNS_5dequeIS3_NS_9allocatorIS3_EEEEE3popB8ue170006Ev, symObjAddr: 0x7DC, symBinAddr: 0x100002D0C, symSize: 0x24 }
  - { offsetInCU: 0xEE05, offset: 0xEE05, size: 0x8, addend: 0x0, symName: __ZNSt3__15queueIPK4NodeNS_5dequeIS3_NS_9allocatorIS3_EEEEE4pushB8ue170006EOS3_, symObjAddr: 0x800, symBinAddr: 0x100002D30, symSize: 0x2C }
  - { offsetInCU: 0xEE3A, offset: 0xEE3A, size: 0x8, addend: 0x0, symName: __ZNSt3__113basic_ostreamIcNS_11char_traitsIcEEElsB8ue170006EPFRNS_8ios_baseES5_E, symObjAddr: 0x8D8, symBinAddr: 0x100002E08, symSize: 0x40 }
  - { offsetInCU: 0xEE6E, offset: 0xEE6E, size: 0x8, addend: 0x0, symName: __ZNSt3__15queueIPK4NodeNS_5dequeIS3_NS_9allocatorIS3_EEEEED1Ev, symObjAddr: 0x974, symBinAddr: 0x100002EA4, symSize: 0x2C }
  - { offsetInCU: 0xEE9B, offset: 0xEE9B, size: 0x8, addend: 0x0, symName: __Z15ugly_print_treePK4Node, symObjAddr: 0x9A0, symBinAddr: 0x100002ED0, symSize: 0x60 }
  - { offsetInCU: 0xEEC3, offset: 0xEEC3, size: 0x8, addend: 0x0, symName: __Z10build_treeSt16initializer_listIiE, symObjAddr: 0xA00, symBinAddr: 0x100002F30, symSize: 0x3F0 }
  - { offsetInCU: 0xEF9A, offset: 0xEF9A, size: 0x8, addend: 0x0, symName: __ZNSt3__16vectorIP4NodeNS_9allocatorIS2_EEEC1B8ue170006Ev, symObjAddr: 0xDF0, symBinAddr: 0x100003320, symSize: 0x2C }
  - { offsetInCU: 0xEFC4, offset: 0xEFC4, size: 0x8, addend: 0x0, symName: __ZNSt3__16vectorIP4NodeNS_9allocatorIS2_EEE7reserveEm, symObjAddr: 0xE1C, symBinAddr: 0x10000334C, symSize: 0xE8 }
  - { offsetInCU: 0xF034, offset: 0xF034, size: 0x8, addend: 0x0, symName: __ZNKSt16initializer_listIiE4sizeB8ue170006Ev, symObjAddr: 0xF04, symBinAddr: 0x100003434, symSize: 0x18 }
  - { offsetInCU: 0xF05A, offset: 0xF05A, size: 0x8, addend: 0x0, symName: __ZNKSt16initializer_listIiE5beginB8ue170006Ev, symObjAddr: 0xF1C, symBinAddr: 0x10000344C, symSize: 0x18 }
  - { offsetInCU: 0xF080, offset: 0xF080, size: 0x8, addend: 0x0, symName: __ZNKSt16initializer_listIiE3endB8ue170006Ev, symObjAddr: 0xF34, symBinAddr: 0x100003464, symSize: 0x20 }
  - { offsetInCU: 0xF0A6, offset: 0xF0A6, size: 0x8, addend: 0x0, symName: __ZNSt3__16vectorIP4NodeNS_9allocatorIS2_EEE9push_backB8ue170006EOS2_, symObjAddr: 0xF54, symBinAddr: 0x100003484, symSize: 0x6C }
  - { offsetInCU: 0xF0DD, offset: 0xF0DD, size: 0x8, addend: 0x0, symName: __ZN4NodeC1Ei, symObjAddr: 0xFC0, symBinAddr: 0x1000034F0, symSize: 0x34 }
  - { offsetInCU: 0xF115, offset: 0xF115, size: 0x8, addend: 0x0, symName: __ZNKSt3__16vectorIP4NodeNS_9allocatorIS2_EEE4sizeB8ue170006Ev, symObjAddr: 0xFF4, symBinAddr: 0x100003524, symSize: 0x28 }
  - { offsetInCU: 0xF13B, offset: 0xF13B, size: 0x8, addend: 0x0, symName: __ZNSt3__16vectorIP4NodeNS_9allocatorIS2_EEEixB8ue170006Em, symObjAddr: 0x101C, symBinAddr: 0x10000354C, symSize: 0x24 }
  - { offsetInCU: 0xF255, offset: 0xF255, size: 0x8, addend: 0x0, symName: __ZNSt3__118basic_stringstreamIcNS_11char_traitsIcEENS_9allocatorIcEEEC1B8ue170006Ev, symObjAddr: 0x1040, symBinAddr: 0x100003570, symSize: 0x104 }
  - { offsetInCU: 0xF27F, offset: 0xF27F, size: 0x8, addend: 0x0, symName: __ZNKSt3__118basic_stringstreamIcNS_11char_traitsIcEENS_9allocatorIcEEE3strB8ue170006Ev, symObjAddr: 0x1144, symBinAddr: 0x100003674, symSize: 0x30 }
  - { offsetInCU: 0xF2AA, offset: 0xF2AA, size: 0x8, addend: 0x0, symName: __ZNSt3__118basic_stringstreamIcNS_11char_traitsIcEENS_9allocatorIcEEED1Ev, symObjAddr: 0x1174, symBinAddr: 0x1000036A4, symSize: 0x40 }
  - { offsetInCU: 0xF2D7, offset: 0xF2D7, size: 0x8, addend: 0x0, symName: __ZNKSt3__16vectorIP4NodeNS_9allocatorIS2_EEE5emptyB8ue170006Ev, symObjAddr: 0x11B4, symBinAddr: 0x1000036E4, symSize: 0x28 }
  - { offsetInCU: 0xF2FD, offset: 0xF2FD, size: 0x8, addend: 0x0, symName: __ZNSt3__16vectorIP4NodeNS_9allocatorIS2_EEED1B8ue170006Ev, symObjAddr: 0x11DC, symBinAddr: 0x10000370C, symSize: 0x2C }
  - { offsetInCU: 0xF327, offset: 0xF327, size: 0x8, addend: 0x0, symName: __Z10noisy_findP4Nodei, symObjAddr: 0x1208, symBinAddr: 0x100003738, symSize: 0x80 }
  - { offsetInCU: 0xF35E, offset: 0xF35E, size: 0x8, addend: 0x0, symName: __Z5test1v, symObjAddr: 0x12B4, symBinAddr: 0x1000037E4, symSize: 0xE4 }
  - { offsetInCU: 0xF387, offset: 0xF387, size: 0x8, addend: 0x0, symName: __ZNSt16initializer_listIiEC1B8ue170006Ev, symObjAddr: 0x1398, symBinAddr: 0x1000038C8, symSize: 0x2C }
  - { offsetInCU: 0xF3B1, offset: 0xF3B1, size: 0x8, addend: 0x0, symName: __Z5test2v, symObjAddr: 0x13C4, symBinAddr: 0x1000038F4, symSize: 0x138 }
  - { offsetInCU: 0xF3DA, offset: 0xF3DA, size: 0x8, addend: 0x0, symName: __Z5test3v, symObjAddr: 0x14FC, symBinAddr: 0x100003A2C, symSize: 0x138 }
  - { offsetInCU: 0xF403, offset: 0xF403, size: 0x8, addend: 0x0, symName: __Z5test4v, symObjAddr: 0x1634, symBinAddr: 0x100003B64, symSize: 0x138 }
  - { offsetInCU: 0xF42C, offset: 0xF42C, size: 0x8, addend: 0x0, symName: _main, symObjAddr: 0x176C, symBinAddr: 0x100003C9C, symSize: 0x250 }
  - { offsetInCU: 0xF48E, offset: 0xF48E, size: 0x8, addend: 0x0, symName: __ZNKSt3__16__lessIvvEclB8ue170006IiiEEbRKT_RKT0_, symObjAddr: 0x1A10, symBinAddr: 0x100003F40, symSize: 0x34 }
  - { offsetInCU: 0xF4E2, offset: 0xF4E2, size: 0x8, addend: 0x0, symName: __ZNSt3__18__iom_t6C1B8ue170006Ei, symObjAddr: 0x1A44, symBinAddr: 0x100003F74, symSize: 0x34 }
  - { offsetInCU: 0xF51A, offset: 0xF51A, size: 0x8, addend: 0x0, symName: __ZNSt3__18__iom_t6C2B8ue170006Ei, symObjAddr: 0x1A78, symBinAddr: 0x100003FA8, symSize: 0x20 }
  - { offsetInCU: 0xF552, offset: 0xF552, size: 0x8, addend: 0x0, symName: __ZNSt3__18ios_base4setfB8ue170006Ejj, symObjAddr: 0x1A98, symBinAddr: 0x100003FC8, symSize: 0x5C }
  - { offsetInCU: 0xF5A7, offset: 0xF5A7, size: 0x8, addend: 0x0, symName: __ZNSt3__18ios_base6unsetfB8ue170006Ej, symObjAddr: 0x1AF4, symBinAddr: 0x100004024, symSize: 0x28 }
  - { offsetInCU: 0xF5DE, offset: 0xF5DE, size: 0x8, addend: 0x0, symName: __ZNSt3__15queueIPK4NodeNS_5dequeIS3_NS_9allocatorIS3_EEEEED2Ev, symObjAddr: 0x1B1C, symBinAddr: 0x10000404C, symSize: 0x2C }
  - { offsetInCU: 0xF60B, offset: 0xF60B, size: 0x8, addend: 0x0, symName: __ZNSt3__15dequeIPK4NodeNS_9allocatorIS3_EEED1B8ue170006Ev, symObjAddr: 0x1B48, symBinAddr: 0x100004078, symSize: 0x2C }
  - { offsetInCU: 0xF635, offset: 0xF635, size: 0x8, addend: 0x0, symName: __ZNSt3__15dequeIPK4NodeNS_9allocatorIS3_EEED2B8ue170006Ev, symObjAddr: 0x1B74, symBinAddr: 0x1000040A4, symSize: 0xA4 }
  - { offsetInCU: 0xF68B, offset: 0xF68B, size: 0x8, addend: 0x0, symName: __ZNSt3__15dequeIPK4NodeNS_9allocatorIS3_EEE5clearEv, symObjAddr: 0x1C18, symBinAddr: 0x100004148, symSize: 0x194 }
  - { offsetInCU: 0xF6E6, offset: 0xF6E6, size: 0x8, addend: 0x0, symName: __ZNKSt3__15dequeIPK4NodeNS_9allocatorIS3_EEE17__annotate_deleteB8ue170006Ev, symObjAddr: 0x1DAC, symBinAddr: 0x1000042DC, symSize: 0xE8 }
  - { offsetInCU: 0xF729, offset: 0xF729, size: 0x8, addend: 0x0, symName: __ZNSt3__114__split_bufferIPPK4NodeNS_9allocatorIS4_EEE5beginB8ue170006Ev, symObjAddr: 0x1E94, symBinAddr: 0x1000043C4, symSize: 0x18 }
  - { offsetInCU: 0xF74F, offset: 0xF74F, size: 0x8, addend: 0x0, symName: __ZNSt3__114__split_bufferIPPK4NodeNS_9allocatorIS4_EEE3endB8ue170006Ev, symObjAddr: 0x1EAC, symBinAddr: 0x1000043DC, symSize: 0x18 }
  - { offsetInCU: 0xF775, offset: 0xF775, size: 0x8, addend: 0x0, symName: __ZNSt3__116allocator_traitsINS_9allocatorIPK4NodeEEE10deallocateB8ue170006ERS5_PS4_m, symObjAddr: 0x1EC4, symBinAddr: 0x1000043F4, symSize: 0x34 }
  - { offsetInCU: 0xF7B7, offset: 0xF7B7, size: 0x8, addend: 0x0, symName: __ZNSt3__15dequeIPK4NodeNS_9allocatorIS3_EEE7__allocB8ue170006Ev, symObjAddr: 0x1EF8, symBinAddr: 0x100004428, symSize: 0x28 }
  - { offsetInCU: 0xF7DD, offset: 0xF7DD, size: 0x8, addend: 0x0, symName: __ZNSt3__114__split_bufferIPPK4NodeNS_9allocatorIS4_EEED1Ev, symObjAddr: 0x1F20, symBinAddr: 0x100004450, symSize: 0x2C }
  - { offsetInCU: 0xF809, offset: 0xF809, size: 0x8, addend: 0x0, symName: __ZNSt3__15dequeIPK4NodeNS_9allocatorIS3_EEE5beginB8ue170006Ev, symObjAddr: 0x1F4C, symBinAddr: 0x10000447C, symSize: 0xB8 }
  - { offsetInCU: 0xF83E, offset: 0xF83E, size: 0x8, addend: 0x0, symName: __ZNSt3__15dequeIPK4NodeNS_9allocatorIS3_EEE3endB8ue170006Ev, symObjAddr: 0x2004, symBinAddr: 0x100004534, symSize: 0xBC }
  - { offsetInCU: 0xF882, offset: 0xF882, size: 0x8, addend: 0x0, symName: __ZNSt3__116allocator_traitsINS_9allocatorIPK4NodeEEE7destroyB8ue170006IS4_vEEvRS5_PT_, symObjAddr: 0x2100, symBinAddr: 0x100004630, symSize: 0x2C }
  - { offsetInCU: 0xF8BF, offset: 0xF8BF, size: 0x8, addend: 0x0, symName: __ZNKSt3__116__deque_iteratorIPK4NodePS3_RS3_PS4_lLl512EEdeB8ue170006Ev, symObjAddr: 0x212C, symBinAddr: 0x10000465C, symSize: 0x18 }
  - { offsetInCU: 0xF8E5, offset: 0xF8E5, size: 0x8, addend: 0x0, symName: __ZNSt3__116__deque_iteratorIPK4NodePS3_RS3_PS4_lLl512EEppB8ue170006Ev, symObjAddr: 0x2144, symBinAddr: 0x100004674, symSize: 0x70 }
  - { offsetInCU: 0xF90B, offset: 0xF90B, size: 0x8, addend: 0x0, symName: __ZNSt3__15dequeIPK4NodeNS_9allocatorIS3_EEE6__sizeB8ue170006Ev, symObjAddr: 0x21B4, symBinAddr: 0x1000046E4, symSize: 0x28 }
  - { offsetInCU: 0xF931, offset: 0xF931, size: 0x8, addend: 0x0, symName: __ZNKSt3__114__split_bufferIPPK4NodeNS_9allocatorIS4_EEE4sizeB8ue170006Ev, symObjAddr: 0x21DC, symBinAddr: 0x10000470C, symSize: 0x28 }
  - { offsetInCU: 0xF957, offset: 0xF957, size: 0x8, addend: 0x0, symName: __ZNSt3__114__split_bufferIPPK4NodeNS_9allocatorIS4_EEE5frontB8ue170006Ev, symObjAddr: 0x2204, symBinAddr: 0x100004734, symSize: 0x18 }
  - { offsetInCU: 0xF97D, offset: 0xF97D, size: 0x8, addend: 0x0, symName: __ZNSt3__114__split_bufferIPPK4NodeNS_9allocatorIS4_EEE9pop_frontB8ue170006Ev, symObjAddr: 0x221C, symBinAddr: 0x10000474C, symSize: 0x2C }
  - { offsetInCU: 0xF9A3, offset: 0xF9A3, size: 0x8, addend: 0x0, symName: __ZNKSt3__15dequeIPK4NodeNS_9allocatorIS3_EEE14__annotate_newB8ue170006Em, symObjAddr: 0x2248, symBinAddr: 0x100004778, symSize: 0xB8 }
  - { offsetInCU: 0xF9D8, offset: 0xF9D8, size: 0x8, addend: 0x0, symName: __ZNKSt3__114__split_bufferIPPK4NodeNS_9allocatorIS4_EEE5emptyB8ue170006Ev, symObjAddr: 0x2300, symBinAddr: 0x100004830, symSize: 0x28 }
  - { offsetInCU: 0xF9FE, offset: 0xF9FE, size: 0x8, addend: 0x0, symName: __ZNSt3__116__deque_iteratorIPK4NodePS3_RS3_PS4_lLl512EEC1B8ue170006ES6_S4_, symObjAddr: 0x2328, symBinAddr: 0x100004858, symSize: 0x3C }
  - { offsetInCU: 0xFA46, offset: 0xFA46, size: 0x8, addend: 0x0, symName: __ZNSt3__116__deque_iteratorIPK4NodePS3_RS3_PS4_lLl512EEC2B8ue170006ES6_S4_, symObjAddr: 0x2364, symBinAddr: 0x100004894, symSize: 0x2C }
  - { offsetInCU: 0xFA8E, offset: 0xFA8E, size: 0x8, addend: 0x0, symName: __ZNKSt3__15dequeIPK4NodeNS_9allocatorIS3_EEE4sizeB8ue170006Ev, symObjAddr: 0x2390, symBinAddr: 0x1000048C0, symSize: 0x28 }
  - { offsetInCU: 0xFAB4, offset: 0xFAB4, size: 0x8, addend: 0x0, symName: __ZNKSt3__15dequeIPK4NodeNS_9allocatorIS3_EEE6__sizeB8ue170006Ev, symObjAddr: 0x23B8, symBinAddr: 0x1000048E8, symSize: 0x28 }
  - { offsetInCU: 0xFADA, offset: 0xFADA, size: 0x8, addend: 0x0, symName: __ZNKSt3__117__compressed_pairImNS_9allocatorIPK4NodeEEE5firstB8ue170006Ev, symObjAddr: 0x23E0, symBinAddr: 0x100004910, symSize: 0x24 }
  - { offsetInCU: 0xFB00, offset: 0xFB00, size: 0x8, addend: 0x0, symName: __ZNKSt3__122__compressed_pair_elemImLi0ELb0EE5__getB8ue170006Ev, symObjAddr: 0x2404, symBinAddr: 0x100004934, symSize: 0x14 }
  - { offsetInCU: 0xFB26, offset: 0xFB26, size: 0x8, addend: 0x0, symName: __ZNSt3__19allocatorIPK4NodeE7destroyB8ue170006EPS3_, symObjAddr: 0x2448, symBinAddr: 0x100004978, symSize: 0x14 }
  - { offsetInCU: 0xFB5A, offset: 0xFB5A, size: 0x8, addend: 0x0, symName: __ZNSt3__117__compressed_pairImNS_9allocatorIPK4NodeEEE5firstB8ue170006Ev, symObjAddr: 0x245C, symBinAddr: 0x10000498C, symSize: 0x24 }
  - { offsetInCU: 0xFB80, offset: 0xFB80, size: 0x8, addend: 0x0, symName: __ZNSt3__122__compressed_pair_elemImLi0ELb0EE5__getB8ue170006Ev, symObjAddr: 0x2480, symBinAddr: 0x1000049B0, symSize: 0x14 }
  - { offsetInCU: 0xFBA6, offset: 0xFBA6, size: 0x8, addend: 0x0, symName: __ZNSt3__114__split_bufferIPPK4NodeNS_9allocatorIS4_EEE19__destruct_at_beginB8ue170006EPS4_, symObjAddr: 0x2494, symBinAddr: 0x1000049C4, symSize: 0x2C }
  - { offsetInCU: 0xFBDA, offset: 0xFBDA, size: 0x8, addend: 0x0, symName: __ZNSt3__114__split_bufferIPPK4NodeNS_9allocatorIS4_EEE19__destruct_at_beginEPS4_NS_17integral_constantIbLb1EEE, symObjAddr: 0x24C0, symBinAddr: 0x1000049F0, symSize: 0x20 }
  - { offsetInCU: 0xFC1A, offset: 0xFC1A, size: 0x8, addend: 0x0, symName: __ZNKSt3__15dequeIPK4NodeNS_9allocatorIS3_EEE18__annotate_from_toB8ue170006EmmNS6_22__asan_annotation_typeENS6_23__asan_annotation_placeE, symObjAddr: 0x24E0, symBinAddr: 0x100004A10, symSize: 0x580 }
  - { offsetInCU: 0xFDD6, offset: 0xFDD6, size: 0x8, addend: 0x0, symName: __ZNKSt3__114__split_bufferIPPK4NodeNS_9allocatorIS4_EEE5beginB8ue170006Ev, symObjAddr: 0x2A60, symBinAddr: 0x100004F90, symSize: 0x18 }
  - { offsetInCU: 0xFDFC, offset: 0xFDFC, size: 0x8, addend: 0x0, symName: __ZNKSt3__15dequeIPK4NodeNS_9allocatorIS3_EEE5emptyB8ue170006Ev, symObjAddr: 0x2A78, symBinAddr: 0x100004FA8, symSize: 0x30 }
  - { offsetInCU: 0xFE22, offset: 0xFE22, size: 0x8, addend: 0x0, symName: __ZNKSt3__15dequeIPK4NodeNS_9allocatorIS3_EEE44__annotate_double_ended_contiguous_containerB8ue170006EPKvS8_S8_S8_S8_S8_, symObjAddr: 0x2ABC, symBinAddr: 0x100004FEC, symSize: 0x28 }
  - { offsetInCU: 0xFE8A, offset: 0xFE8A, size: 0x8, addend: 0x0, symName: __ZNKSt3__15dequeIPK4NodeNS_9allocatorIS3_EEE22__annotate_whole_blockB8ue170006EmNS6_22__asan_annotation_typeE, symObjAddr: 0x2AE4, symBinAddr: 0x100005014, symSize: 0xAC }
  - { offsetInCU: 0xFEFB, offset: 0xFEFB, size: 0x8, addend: 0x0, symName: __ZNKSt3__15dequeIPK4NodeNS_9allocatorIS3_EEE23__annotate_poison_blockB8ue170006EPKvS8_, symObjAddr: 0x2B90, symBinAddr: 0x1000050C0, symSize: 0x44 }
  - { offsetInCU: 0xFF3F, offset: 0xFF3F, size: 0x8, addend: 0x0, symName: __ZNSt3__19allocatorIPK4NodeE10deallocateB8ue170006EPS3_m, symObjAddr: 0x2BD4, symBinAddr: 0x100005104, symSize: 0x40 }
  - { offsetInCU: 0xFF81, offset: 0xFF81, size: 0x8, addend: 0x0, symName: __ZNSt3__117__compressed_pairImNS_9allocatorIPK4NodeEEE6secondB8ue170006Ev, symObjAddr: 0x2D3C, symBinAddr: 0x10000526C, symSize: 0x24 }
  - { offsetInCU: 0xFFA7, offset: 0xFFA7, size: 0x8, addend: 0x0, symName: __ZNSt3__122__compressed_pair_elemINS_9allocatorIPK4NodeEELi1ELb1EE5__getB8ue170006Ev, symObjAddr: 0x2D60, symBinAddr: 0x100005290, symSize: 0x14 }
  - { offsetInCU: 0xFFCD, offset: 0xFFCD, size: 0x8, addend: 0x0, symName: __ZNSt3__114__split_bufferIPPK4NodeNS_9allocatorIS4_EEED2Ev, symObjAddr: 0x2D74, symBinAddr: 0x1000052A4, symSize: 0x8C }
  - { offsetInCU: 0xFFF9, offset: 0xFFF9, size: 0x8, addend: 0x0, symName: __ZNSt3__114__split_bufferIPPK4NodeNS_9allocatorIS4_EEE5clearB8ue170006Ev, symObjAddr: 0x2E00, symBinAddr: 0x100005330, symSize: 0x28 }
  - { offsetInCU: 0x1001F, offset: 0x1001F, size: 0x8, addend: 0x0, symName: __ZNSt3__116allocator_traitsINS_9allocatorIPPK4NodeEEE10deallocateB8ue170006ERS6_PS5_m, symObjAddr: 0x2E28, symBinAddr: 0x100005358, symSize: 0x34 }
  - { offsetInCU: 0x10061, offset: 0x10061, size: 0x8, addend: 0x0, symName: __ZNSt3__114__split_bufferIPPK4NodeNS_9allocatorIS4_EEE7__allocB8ue170006Ev, symObjAddr: 0x2E5C, symBinAddr: 0x10000538C, symSize: 0x28 }
  - { offsetInCU: 0x10087, offset: 0x10087, size: 0x8, addend: 0x0, symName: __ZNKSt3__114__split_bufferIPPK4NodeNS_9allocatorIS4_EEE8capacityB8ue170006Ev, symObjAddr: 0x2E84, symBinAddr: 0x1000053B4, symSize: 0x40 }
  - { offsetInCU: 0x100AD, offset: 0x100AD, size: 0x8, addend: 0x0, symName: __ZNSt3__114__split_bufferIPPK4NodeNS_9allocatorIS4_EEE17__destruct_at_endB8ue170006EPS4_, symObjAddr: 0x2EC4, symBinAddr: 0x1000053F4, symSize: 0x2C }
  - { offsetInCU: 0x100E1, offset: 0x100E1, size: 0x8, addend: 0x0, symName: __ZNSt3__114__split_bufferIPPK4NodeNS_9allocatorIS4_EEE17__destruct_at_endB8ue170006EPS4_NS_17integral_constantIbLb0EEE, symObjAddr: 0x2EF0, symBinAddr: 0x100005420, symSize: 0x80 }
  - { offsetInCU: 0x10121, offset: 0x10121, size: 0x8, addend: 0x0, symName: __ZNSt3__116allocator_traitsINS_9allocatorIPPK4NodeEEE7destroyB8ue170006IS5_vEEvRS6_PT_, symObjAddr: 0x2F70, symBinAddr: 0x1000054A0, symSize: 0x2C }
  - { offsetInCU: 0x1015E, offset: 0x1015E, size: 0x8, addend: 0x0, symName: __ZNSt3__19allocatorIPPK4NodeE7destroyB8ue170006EPS4_, symObjAddr: 0x2FB0, symBinAddr: 0x1000054E0, symSize: 0x14 }
  - { offsetInCU: 0x10192, offset: 0x10192, size: 0x8, addend: 0x0, symName: __ZNSt3__19allocatorIPPK4NodeE10deallocateB8ue170006EPS4_m, symObjAddr: 0x2FC4, symBinAddr: 0x1000054F4, symSize: 0x40 }
  - { offsetInCU: 0x101D4, offset: 0x101D4, size: 0x8, addend: 0x0, symName: __ZNSt3__117__compressed_pairIPPPK4NodeNS_9allocatorIS4_EEE6secondB8ue170006Ev, symObjAddr: 0x3004, symBinAddr: 0x100005534, symSize: 0x24 }
  - { offsetInCU: 0x101FA, offset: 0x101FA, size: 0x8, addend: 0x0, symName: __ZNSt3__122__compressed_pair_elemINS_9allocatorIPPK4NodeEELi1ELb1EE5__getB8ue170006Ev, symObjAddr: 0x3028, symBinAddr: 0x100005558, symSize: 0x14 }
  - { offsetInCU: 0x10220, offset: 0x10220, size: 0x8, addend: 0x0, symName: __ZNKSt3__114__split_bufferIPPK4NodeNS_9allocatorIS4_EEE9__end_capB8ue170006Ev, symObjAddr: 0x303C, symBinAddr: 0x10000556C, symSize: 0x28 }
  - { offsetInCU: 0x10246, offset: 0x10246, size: 0x8, addend: 0x0, symName: __ZNKSt3__117__compressed_pairIPPPK4NodeNS_9allocatorIS4_EEE5firstB8ue170006Ev, symObjAddr: 0x3064, symBinAddr: 0x100005594, symSize: 0x24 }
  - { offsetInCU: 0x1026C, offset: 0x1026C, size: 0x8, addend: 0x0, symName: __ZNKSt3__122__compressed_pair_elemIPPPK4NodeLi0ELb0EE5__getB8ue170006Ev, symObjAddr: 0x3088, symBinAddr: 0x1000055B8, symSize: 0x14 }
  - { offsetInCU: 0x10292, offset: 0x10292, size: 0x8, addend: 0x0, symName: __ZN4NodeC2Ei, symObjAddr: 0x309C, symBinAddr: 0x1000055CC, symSize: 0x28 }
  - { offsetInCU: 0x102CA, offset: 0x102CA, size: 0x8, addend: 0x0, symName: __ZNSt3__118basic_stringstreamIcNS_11char_traitsIcEENS_9allocatorIcEEED2Ev, symObjAddr: 0x30C4, symBinAddr: 0x1000055F4, symSize: 0x6C }
  - { offsetInCU: 0x10304, offset: 0x10304, size: 0x8, addend: 0x0, symName: __ZThn16_NSt3__118basic_stringstreamIcNS_11char_traitsIcEENS_9allocatorIcEEED1Ev, symObjAddr: 0x3130, symBinAddr: 0x100005660, symSize: 0x1C }
  - { offsetInCU: 0x1031B, offset: 0x1031B, size: 0x8, addend: 0x0, symName: __ZTv0_n24_NSt3__118basic_stringstreamIcNS_11char_traitsIcEENS_9allocatorIcEEED1Ev, symObjAddr: 0x314C, symBinAddr: 0x10000567C, symSize: 0x28 }
  - { offsetInCU: 0x10337, offset: 0x10337, size: 0x8, addend: 0x0, symName: __ZNSt3__115basic_stringbufIcNS_11char_traitsIcEENS_9allocatorIcEEED1Ev, symObjAddr: 0x3174, symBinAddr: 0x1000056A4, symSize: 0x2C }
  - { offsetInCU: 0x10364, offset: 0x10364, size: 0x8, addend: 0x0, symName: __ZNSt3__115basic_stringbufIcNS_11char_traitsIcEENS_9allocatorIcEEED2Ev, symObjAddr: 0x31A0, symBinAddr: 0x1000056D0, symSize: 0x48 }
  - { offsetInCU: 0x10391, offset: 0x10391, size: 0x8, addend: 0x0, symName: __ZNSt3__18ios_base4setfB8ue170006Ej, symObjAddr: 0x31E8, symBinAddr: 0x100005718, symSize: 0x34 }
  - { offsetInCU: 0x103D7, offset: 0x103D7, size: 0x8, addend: 0x0, symName: __ZNSt16initializer_listIiEC2B8ue170006Ev, symObjAddr: 0x321C, symBinAddr: 0x10000574C, symSize: 0x1C }
  - { offsetInCU: 0x10401, offset: 0x10401, size: 0x8, addend: 0x0, symName: __ZNSt3__111char_traitsIcE6lengthB8ue170006EPKc, symObjAddr: 0x3424, symBinAddr: 0x100005954, symSize: 0x34 }
  - { offsetInCU: 0x10442, offset: 0x10442, size: 0x8, addend: 0x0, symName: __ZNKSt3__113basic_ostreamIcNS_11char_traitsIcEEE6sentrycvbB8ue170006Ev, symObjAddr: 0x3458, symBinAddr: 0x100005988, symSize: 0x1C }
  - { offsetInCU: 0x10468, offset: 0x10468, size: 0x8, addend: 0x0, symName: __ZNSt3__119ostreambuf_iteratorIcNS_11char_traitsIcEEEC1B8ue170006ERNS_13basic_ostreamIcS2_EE, symObjAddr: 0x36B4, symBinAddr: 0x100005BE4, symSize: 0x34 }
  - { offsetInCU: 0x104A0, offset: 0x104A0, size: 0x8, addend: 0x0, symName: __ZNKSt3__18ios_base5flagsB8ue170006Ev, symObjAddr: 0x36E8, symBinAddr: 0x100005C18, symSize: 0x18 }
  - { offsetInCU: 0x104C8, offset: 0x104C8, size: 0x8, addend: 0x0, symName: __ZNKSt3__19basic_iosIcNS_11char_traitsIcEEE4fillB8ue170006Ev, symObjAddr: 0x3700, symBinAddr: 0x100005C30, symSize: 0x64 }
  - { offsetInCU: 0x104F0, offset: 0x104F0, size: 0x8, addend: 0x0, symName: __ZNKSt3__119ostreambuf_iteratorIcNS_11char_traitsIcEEE6failedB8ue170006Ev, symObjAddr: 0x3764, symBinAddr: 0x100005C94, symSize: 0x24 }
  - { offsetInCU: 0x10516, offset: 0x10516, size: 0x8, addend: 0x0, symName: __ZNSt3__19basic_iosIcNS_11char_traitsIcEEE8setstateB8ue170006Ej, symObjAddr: 0x3788, symBinAddr: 0x100005CB8, symSize: 0x2C }
  - { offsetInCU: 0x1054B, offset: 0x1054B, size: 0x8, addend: 0x0, symName: __ZNKSt3__18ios_base5widthB8ue170006Ev, symObjAddr: 0x37B4, symBinAddr: 0x100005CE4, symSize: 0x18 }
  - { offsetInCU: 0x10573, offset: 0x10573, size: 0x8, addend: 0x0, symName: __ZNSt3__115basic_streambufIcNS_11char_traitsIcEEE5sputnB8ue170006EPKcl, symObjAddr: 0x37CC, symBinAddr: 0x100005CFC, symSize: 0x3C }
  - { offsetInCU: 0x105B5, offset: 0x105B5, size: 0x8, addend: 0x0, symName: __ZNSt3__112basic_stringIcNS_11char_traitsIcEENS_9allocatorIcEEEC1B8ue170006Emc, symObjAddr: 0x3808, symBinAddr: 0x100005D38, symSize: 0x3C }
  - { offsetInCU: 0x105FD, offset: 0x105FD, size: 0x8, addend: 0x0, symName: __ZNSt3__112basic_stringIcNS_11char_traitsIcEENS_9allocatorIcEEE4dataB8ue170006Ev, symObjAddr: 0x3844, symBinAddr: 0x100005D74, symSize: 0x28 }
  - { offsetInCU: 0x10623, offset: 0x10623, size: 0x8, addend: 0x0, symName: __ZNSt3__18ios_base5widthB8ue170006El, symObjAddr: 0x386C, symBinAddr: 0x100005D9C, symSize: 0x2C }
  - { offsetInCU: 0x10669, offset: 0x10669, size: 0x8, addend: 0x0, symName: __ZNSt3__112basic_stringIcNS_11char_traitsIcEENS_9allocatorIcEEEC2B8ue170006Emc, symObjAddr: 0x3898, symBinAddr: 0x100005DC8, symSize: 0x4C }
  - { offsetInCU: 0x106B6, offset: 0x106B6, size: 0x8, addend: 0x0, symName: __ZNSt3__117__compressed_pairINS_12basic_stringIcNS_11char_traitsIcEENS_9allocatorIcEEE5__repES5_EC1B8ue170006INS_18__default_init_tagESA_EEOT_OT0_, symObjAddr: 0x38E4, symBinAddr: 0x100005E14, symSize: 0x3C }
  - { offsetInCU: 0x1070E, offset: 0x1070E, size: 0x8, addend: 0x0, symName: __ZNSt3__117__compressed_pairINS_12basic_stringIcNS_11char_traitsIcEENS_9allocatorIcEEE5__repES5_EC2B8ue170006INS_18__default_init_tagESA_EEOT_OT0_, symObjAddr: 0x3920, symBinAddr: 0x100005E50, symSize: 0x3C }
  - { offsetInCU: 0x10766, offset: 0x10766, size: 0x8, addend: 0x0, symName: __ZNSt3__122__compressed_pair_elemINS_12basic_stringIcNS_11char_traitsIcEENS_9allocatorIcEEE5__repELi0ELb0EEC2B8ue170006ENS_18__default_init_tagE, symObjAddr: 0x395C, symBinAddr: 0x100005E8C, symSize: 0x14 }
  - { offsetInCU: 0x1079A, offset: 0x1079A, size: 0x8, addend: 0x0, symName: __ZNSt3__122__compressed_pair_elemINS_9allocatorIcEELi1ELb1EEC2B8ue170006ENS_18__default_init_tagE, symObjAddr: 0x3970, symBinAddr: 0x100005EA0, symSize: 0x2C }
  - { offsetInCU: 0x107CE, offset: 0x107CE, size: 0x8, addend: 0x0, symName: __ZNSt3__19allocatorIcEC2B8ue170006Ev, symObjAddr: 0x399C, symBinAddr: 0x100005ECC, symSize: 0x2C }
  - { offsetInCU: 0x107F8, offset: 0x107F8, size: 0x8, addend: 0x0, symName: __ZNSt3__116__non_trivial_ifILb1ENS_9allocatorIcEEEC2B8ue170006Ev, symObjAddr: 0x39C8, symBinAddr: 0x100005EF8, symSize: 0x14 }
  - { offsetInCU: 0x10822, offset: 0x10822, size: 0x8, addend: 0x0, symName: __ZNSt3__112basic_stringIcNS_11char_traitsIcEENS_9allocatorIcEEE13__get_pointerB8ue170006Ev, symObjAddr: 0x39F0, symBinAddr: 0x100005F20, symSize: 0x54 }
  - { offsetInCU: 0x10848, offset: 0x10848, size: 0x8, addend: 0x0, symName: __ZNKSt3__112basic_stringIcNS_11char_traitsIcEENS_9allocatorIcEEE9__is_longB8ue170006Ev, symObjAddr: 0x3A44, symBinAddr: 0x100005F74, symSize: 0x38 }
  - { offsetInCU: 0x1086E, offset: 0x1086E, size: 0x8, addend: 0x0, symName: __ZNSt3__112basic_stringIcNS_11char_traitsIcEENS_9allocatorIcEEE18__get_long_pointerB8ue170006Ev, symObjAddr: 0x3A7C, symBinAddr: 0x100005FAC, symSize: 0x28 }
  - { offsetInCU: 0x10894, offset: 0x10894, size: 0x8, addend: 0x0, symName: __ZNSt3__112basic_stringIcNS_11char_traitsIcEENS_9allocatorIcEEE19__get_short_pointerB8ue170006Ev, symObjAddr: 0x3AA4, symBinAddr: 0x100005FD4, symSize: 0x28 }
  - { offsetInCU: 0x108BA, offset: 0x108BA, size: 0x8, addend: 0x0, symName: __ZNKSt3__117__compressed_pairINS_12basic_stringIcNS_11char_traitsIcEENS_9allocatorIcEEE5__repES5_E5firstB8ue170006Ev, symObjAddr: 0x3ACC, symBinAddr: 0x100005FFC, symSize: 0x24 }
  - { offsetInCU: 0x108E0, offset: 0x108E0, size: 0x8, addend: 0x0, symName: __ZNKSt3__122__compressed_pair_elemINS_12basic_stringIcNS_11char_traitsIcEENS_9allocatorIcEEE5__repELi0ELb0EE5__getB8ue170006Ev, symObjAddr: 0x3AF0, symBinAddr: 0x100006020, symSize: 0x14 }
  - { offsetInCU: 0x10906, offset: 0x10906, size: 0x8, addend: 0x0, symName: __ZNSt3__117__compressed_pairINS_12basic_stringIcNS_11char_traitsIcEENS_9allocatorIcEEE5__repES5_E5firstB8ue170006Ev, symObjAddr: 0x3B04, symBinAddr: 0x100006034, symSize: 0x24 }
  - { offsetInCU: 0x1092C, offset: 0x1092C, size: 0x8, addend: 0x0, symName: __ZNSt3__122__compressed_pair_elemINS_12basic_stringIcNS_11char_traitsIcEENS_9allocatorIcEEE5__repELi0ELb0EE5__getB8ue170006Ev, symObjAddr: 0x3B28, symBinAddr: 0x100006058, symSize: 0x14 }
  - { offsetInCU: 0x10952, offset: 0x10952, size: 0x8, addend: 0x0, symName: __ZNSt3__114pointer_traitsIPcE10pointer_toB8ue170006ERc, symObjAddr: 0x3B3C, symBinAddr: 0x10000606C, symSize: 0x14 }
  - { offsetInCU: 0x10975, offset: 0x10975, size: 0x8, addend: 0x0, symName: __ZNSt3__119ostreambuf_iteratorIcNS_11char_traitsIcEEEC2B8ue170006ERNS_13basic_ostreamIcS2_EE, symObjAddr: 0x3B50, symBinAddr: 0x100006080, symSize: 0x54 }
  - { offsetInCU: 0x109AD, offset: 0x109AD, size: 0x8, addend: 0x0, symName: __ZNKSt3__19basic_iosIcNS_11char_traitsIcEEE5rdbufB8ue170006Ev, symObjAddr: 0x3BA4, symBinAddr: 0x1000060D4, symSize: 0x24 }
  - { offsetInCU: 0x109D5, offset: 0x109D5, size: 0x8, addend: 0x0, symName: __ZNKSt3__18ios_base5rdbufB8ue170006Ev, symObjAddr: 0x3BC8, symBinAddr: 0x1000060F8, symSize: 0x18 }
  - { offsetInCU: 0x109FB, offset: 0x109FB, size: 0x8, addend: 0x0, symName: __ZNSt3__111char_traitsIcE11eq_int_typeB8ue170006Eii, symObjAddr: 0x3BE0, symBinAddr: 0x100006110, symSize: 0x28 }
  - { offsetInCU: 0x10A2E, offset: 0x10A2E, size: 0x8, addend: 0x0, symName: __ZNSt3__111char_traitsIcE3eofB8ue170006Ev, symObjAddr: 0x3C08, symBinAddr: 0x100006138, symSize: 0x8 }
  - { offsetInCU: 0x10A42, offset: 0x10A42, size: 0x8, addend: 0x0, symName: __ZNKSt3__19basic_iosIcNS_11char_traitsIcEEE5widenB8ue170006Ec, symObjAddr: 0x3C10, symBinAddr: 0x100006140, symSize: 0x84 }
  - { offsetInCU: 0x10AAB, offset: 0x10AAB, size: 0x8, addend: 0x0, symName: __ZNKSt3__15ctypeIcE5widenB8ue170006Ec, symObjAddr: 0x3CC0, symBinAddr: 0x1000061F0, symSize: 0x38 }
  - { offsetInCU: 0x10AE0, offset: 0x10AE0, size: 0x8, addend: 0x0, symName: __ZNSt3__18ios_base8setstateB8ue170006Ej, symObjAddr: 0x3CF8, symBinAddr: 0x100006228, symSize: 0x34 }
  - { offsetInCU: 0x10B17, offset: 0x10B17, size: 0x8, addend: 0x0, symName: __ZNSt3__15queueIPK4NodeNS_5dequeIS3_NS_9allocatorIS3_EEEEEC2B8ue170006Ev, symObjAddr: 0x3D50, symBinAddr: 0x100006280, symSize: 0x2C }
  - { offsetInCU: 0x10B41, offset: 0x10B41, size: 0x8, addend: 0x0, symName: __ZNSt3__15dequeIPK4NodeNS_9allocatorIS3_EEEC1B8ue170006Ev, symObjAddr: 0x3D7C, symBinAddr: 0x1000062AC, symSize: 0x2C }
  - { offsetInCU: 0x10B6B, offset: 0x10B6B, size: 0x8, addend: 0x0, symName: __ZNSt3__15dequeIPK4NodeNS_9allocatorIS3_EEEC2B8ue170006Ev, symObjAddr: 0x3DA8, symBinAddr: 0x1000062D8, symSize: 0x5C }
  - { offsetInCU: 0x10B95, offset: 0x10B95, size: 0x8, addend: 0x0, symName: __ZNSt3__114__split_bufferIPPK4NodeNS_9allocatorIS4_EEEC1B8ue170006Ev, symObjAddr: 0x3E04, symBinAddr: 0x100006334, symSize: 0x2C }
  - { offsetInCU: 0x10BC4, offset: 0x10BC4, size: 0x8, addend: 0x0, symName: __ZNSt3__117__compressed_pairImNS_9allocatorIPK4NodeEEEC1B8ue170006IiNS_18__default_init_tagEEEOT_OT0_, symObjAddr: 0x3E30, symBinAddr: 0x100006360, symSize: 0x3C }
  - { offsetInCU: 0x10C1C, offset: 0x10C1C, size: 0x8, addend: 0x0, symName: __ZNSt3__114__split_bufferIPPK4NodeNS_9allocatorIS4_EEEC2B8ue170006Ev, symObjAddr: 0x3E6C, symBinAddr: 0x10000639C, symSize: 0x50 }
  - { offsetInCU: 0x10C4B, offset: 0x10C4B, size: 0x8, addend: 0x0, symName: __ZNSt3__117__compressed_pairIPPPK4NodeNS_9allocatorIS4_EEEC1B8ue170006IDnNS_18__default_init_tagEEEOT_OT0_, symObjAddr: 0x3EBC, symBinAddr: 0x1000063EC, symSize: 0x3C }
  - { offsetInCU: 0x10CA3, offset: 0x10CA3, size: 0x8, addend: 0x0, symName: __ZNSt3__117__compressed_pairIPPPK4NodeNS_9allocatorIS4_EEEC2B8ue170006IDnNS_18__default_init_tagEEEOT_OT0_, symObjAddr: 0x3EF8, symBinAddr: 0x100006428, symSize: 0x40 }
  - { offsetInCU: 0x10CFB, offset: 0x10CFB, size: 0x8, addend: 0x0, symName: __ZNSt3__122__compressed_pair_elemIPPPK4NodeLi0ELb0EEC2B8ue170006IDnvEEOT_, symObjAddr: 0x3F38, symBinAddr: 0x100006468, symSize: 0x1C }
  - { offsetInCU: 0x10D3D, offset: 0x10D3D, size: 0x8, addend: 0x0, symName: __ZNSt3__122__compressed_pair_elemINS_9allocatorIPPK4NodeEELi1ELb1EEC2B8ue170006ENS_18__default_init_tagE, symObjAddr: 0x3F54, symBinAddr: 0x100006484, symSize: 0x2C }
  - { offsetInCU: 0x10D71, offset: 0x10D71, size: 0x8, addend: 0x0, symName: __ZNSt3__19allocatorIPPK4NodeEC2B8ue170006Ev, symObjAddr: 0x3F80, symBinAddr: 0x1000064B0, symSize: 0x2C }
  - { offsetInCU: 0x10D9B, offset: 0x10D9B, size: 0x8, addend: 0x0, symName: __ZNSt3__116__non_trivial_ifILb1ENS_9allocatorIPPK4NodeEEEC2B8ue170006Ev, symObjAddr: 0x3FAC, symBinAddr: 0x1000064DC, symSize: 0x14 }
  - { offsetInCU: 0x10DC5, offset: 0x10DC5, size: 0x8, addend: 0x0, symName: __ZNSt3__117__compressed_pairImNS_9allocatorIPK4NodeEEEC2B8ue170006IiNS_18__default_init_tagEEEOT_OT0_, symObjAddr: 0x3FC0, symBinAddr: 0x1000064F0, symSize: 0x40 }
  - { offsetInCU: 0x10E1D, offset: 0x10E1D, size: 0x8, addend: 0x0, symName: __ZNSt3__122__compressed_pair_elemImLi0ELb0EEC2B8ue170006IivEEOT_, symObjAddr: 0x4000, symBinAddr: 0x100006530, symSize: 0x24 }
  - { offsetInCU: 0x10E5F, offset: 0x10E5F, size: 0x8, addend: 0x0, symName: __ZNSt3__122__compressed_pair_elemINS_9allocatorIPK4NodeEELi1ELb1EEC2B8ue170006ENS_18__default_init_tagE, symObjAddr: 0x4024, symBinAddr: 0x100006554, symSize: 0x2C }
  - { offsetInCU: 0x10E93, offset: 0x10E93, size: 0x8, addend: 0x0, symName: __ZNSt3__19allocatorIPK4NodeEC2B8ue170006Ev, symObjAddr: 0x4050, symBinAddr: 0x100006580, symSize: 0x2C }
  - { offsetInCU: 0x10EBD, offset: 0x10EBD, size: 0x8, addend: 0x0, symName: __ZNSt3__116__non_trivial_ifILb1ENS_9allocatorIPK4NodeEEEC2B8ue170006Ev, symObjAddr: 0x407C, symBinAddr: 0x1000065AC, symSize: 0x14 }
  - { offsetInCU: 0x10EE7, offset: 0x10EE7, size: 0x8, addend: 0x0, symName: __ZNSt3__15dequeIPK4NodeNS_9allocatorIS3_EEE9push_backERKS3_, symObjAddr: 0x4090, symBinAddr: 0x1000065C0, symSize: 0xAC }
  - { offsetInCU: 0x10F2D, offset: 0x10F2D, size: 0x8, addend: 0x0, symName: __ZNKSt3__15dequeIPK4NodeNS_9allocatorIS3_EEE12__back_spareB8ue170006Ev, symObjAddr: 0x413C, symBinAddr: 0x10000666C, symSize: 0x54 }
  - { offsetInCU: 0x10F53, offset: 0x10F53, size: 0x8, addend: 0x0, symName: __ZNSt3__15dequeIPK4NodeNS_9allocatorIS3_EEE19__add_back_capacityEv, symObjAddr: 0x4190, symBinAddr: 0x1000066C0, symSize: 0x34C }
  - { offsetInCU: 0x11008, offset: 0x11008, size: 0x8, addend: 0x0, symName: __ZNKSt3__15dequeIPK4NodeNS_9allocatorIS3_EEE24__annotate_increase_backB8ue170006Em, symObjAddr: 0x44DC, symBinAddr: 0x100006A0C, symSize: 0x7C }
  - { offsetInCU: 0x1103D, offset: 0x1103D, size: 0x8, addend: 0x0, symName: __ZNSt3__116allocator_traitsINS_9allocatorIPK4NodeEEE9constructB8ue170006IS4_JRKS4_EvEEvRS5_PT_DpOT0_, symObjAddr: 0x4558, symBinAddr: 0x100006A88, symSize: 0x34 }
  - { offsetInCU: 0x11094, offset: 0x11094, size: 0x8, addend: 0x0, symName: __ZNKSt3__15dequeIPK4NodeNS_9allocatorIS3_EEE10__capacityB8ue170006Ev, symObjAddr: 0x458C, symBinAddr: 0x100006ABC, symSize: 0x60 }
  - { offsetInCU: 0x110BA, offset: 0x110BA, size: 0x8, addend: 0x0, symName: __ZNKSt3__15dequeIPK4NodeNS_9allocatorIS3_EEE13__front_spareB8ue170006Ev, symObjAddr: 0x45EC, symBinAddr: 0x100006B1C, symSize: 0x18 }
  - { offsetInCU: 0x110E0, offset: 0x110E0, size: 0x8, addend: 0x0, symName: __ZNSt3__114__split_bufferIPPK4NodeNS_9allocatorIS4_EEE9push_backB8ue170006ERKS4_, symObjAddr: 0x4604, symBinAddr: 0x100006B34, symSize: 0x260 }
  - { offsetInCU: 0x11158, offset: 0x11158, size: 0x8, addend: 0x0, symName: __ZNKSt3__114__split_bufferIPPK4NodeNS_9allocatorIS4_EEE12__back_spareB8ue170006Ev, symObjAddr: 0x4864, symBinAddr: 0x100006D94, symSize: 0x40 }
  - { offsetInCU: 0x1117E, offset: 0x1117E, size: 0x8, addend: 0x0, symName: __ZNSt3__114__split_bufferIPPK4NodeNS_9allocatorIS4_EEE9push_backEOS4_, symObjAddr: 0x48A4, symBinAddr: 0x100006DD4, symSize: 0x260 }
  - { offsetInCU: 0x111F6, offset: 0x111F6, size: 0x8, addend: 0x0, symName: __ZNSt3__116allocator_traitsINS_9allocatorIPK4NodeEEE8allocateB8ue170006ERS5_m, symObjAddr: 0x4B04, symBinAddr: 0x100007034, symSize: 0x2C }
  - { offsetInCU: 0x11229, offset: 0x11229, size: 0x8, addend: 0x0, symName: __ZNSt3__114__split_bufferIPPK4NodeNS_9allocatorIS4_EEE10push_frontEOS4_, symObjAddr: 0x4B30, symBinAddr: 0x100007060, symSize: 0x25C }
  - { offsetInCU: 0x112A1, offset: 0x112A1, size: 0x8, addend: 0x0, symName: __ZNSt3__114__split_bufferIPPK4NodeRNS_9allocatorIS4_EEEC1EmmS7_, symObjAddr: 0x4DB8, symBinAddr: 0x1000072E8, symSize: 0x44 }
  - { offsetInCU: 0x112FC, offset: 0x112FC, size: 0x8, addend: 0x0, symName: __ZNSt3__122__allocator_destructorINS_9allocatorIPK4NodeEEEC1B8ue170006ERS5_m, symObjAddr: 0x4DFC, symBinAddr: 0x10000732C, symSize: 0x3C }
  - { offsetInCU: 0x113BF, offset: 0x113BF, size: 0x8, addend: 0x0, symName: __ZNSt3__110unique_ptrIPPK4NodeNS_22__allocator_destructorINS_9allocatorIS3_EEEEEC1B8ue170006ILb1EvEES4_NS_16__dependent_typeINS_27__unique_ptr_deleter_sfinaeIS8_EEXT_EE20__good_rval_ref_typeE, symObjAddr: 0x4E38, symBinAddr: 0x100007368, symSize: 0x3C }
  - { offsetInCU: 0x11410, offset: 0x11410, size: 0x8, addend: 0x0, symName: __ZNSt3__114__split_bufferIPPK4NodeRNS_9allocatorIS4_EEE9push_backEOS4_, symObjAddr: 0x4E74, symBinAddr: 0x1000073A4, symSize: 0x260 }
  - { offsetInCU: 0x11488, offset: 0x11488, size: 0x8, addend: 0x0, symName: __ZNKSt3__110unique_ptrIPPK4NodeNS_22__allocator_destructorINS_9allocatorIS3_EEEEE3getB8ue170006Ev, symObjAddr: 0x50D4, symBinAddr: 0x100007604, symSize: 0x28 }
  - { offsetInCU: 0x114AE, offset: 0x114AE, size: 0x8, addend: 0x0, symName: __ZNSt3__110unique_ptrIPPK4NodeNS_22__allocator_destructorINS_9allocatorIS3_EEEEE7releaseB8ue170006Ev, symObjAddr: 0x50FC, symBinAddr: 0x10000762C, symSize: 0x44 }
  - { offsetInCU: 0x114E3, offset: 0x114E3, size: 0x8, addend: 0x0, symName: __ZNSt3__114__split_bufferIPPK4NodeRNS_9allocatorIS4_EEE10push_frontERKS4_, symObjAddr: 0x5140, symBinAddr: 0x100007670, symSize: 0x25C }
  - { offsetInCU: 0x1155B, offset: 0x1155B, size: 0x8, addend: 0x0, symName: __ZNSt3__114__split_bufferIPPK4NodeNS_9allocatorIS4_EEE9__end_capB8ue170006Ev, symObjAddr: 0x53D8, symBinAddr: 0x100007908, symSize: 0x28 }
  - { offsetInCU: 0x11581, offset: 0x11581, size: 0x8, addend: 0x0, symName: __ZNSt3__114__split_bufferIPPK4NodeRNS_9allocatorIS4_EEE9__end_capB8ue170006Ev, symObjAddr: 0x5400, symBinAddr: 0x100007930, symSize: 0x28 }
  - { offsetInCU: 0x115A7, offset: 0x115A7, size: 0x8, addend: 0x0, symName: __ZNSt3__110unique_ptrIPPK4NodeNS_22__allocator_destructorINS_9allocatorIS3_EEEEED1B8ue170006Ev, symObjAddr: 0x5428, symBinAddr: 0x100007958, symSize: 0x2C }
  - { offsetInCU: 0x115D1, offset: 0x115D1, size: 0x8, addend: 0x0, symName: __ZNSt3__114__split_bufferIPPK4NodeRNS_9allocatorIS4_EEED1Ev, symObjAddr: 0x5454, symBinAddr: 0x100007984, symSize: 0x2C }
  - { offsetInCU: 0x115FD, offset: 0x115FD, size: 0x8, addend: 0x0, symName: __ZNSt3__114__split_bufferIPPK4NodeRNS_9allocatorIS4_EEE18__construct_at_endINS_13move_iteratorIPS4_EEEENS_9enable_ifIXsr31__has_forward_iterator_categoryIT_EE5valueEvE4typeESE_SE_, symObjAddr: 0x54C0, symBinAddr: 0x1000079F0, symSize: 0x60 }
  - { offsetInCU: 0x1164A, offset: 0x1164A, size: 0x8, addend: 0x0, symName: __ZNSt3__113move_iteratorIPPPK4NodeEC1B8ue170006ES5_, symObjAddr: 0x5520, symBinAddr: 0x100007A50, symSize: 0x34 }
  - { offsetInCU: 0x11682, offset: 0x11682, size: 0x8, addend: 0x0, symName: __ZNSt3__116allocator_traitsINS_9allocatorIPPK4NodeEEE9constructB8ue170006IS5_JRKS5_EvEEvRS6_PT_DpOT0_, symObjAddr: 0x5554, symBinAddr: 0x100007A84, symSize: 0x34 }
  - { offsetInCU: 0x116FC, offset: 0x116FC, size: 0x8, addend: 0x0, symName: __ZNKSt3__114__move_trivialclB8ue170006IPPK4NodeS5_Li0EEENS_4pairIPT_PT0_EES8_S8_SA_, symObjAddr: 0x5724, symBinAddr: 0x100007C54, symSize: 0x48 }
  - { offsetInCU: 0x11769, offset: 0x11769, size: 0x8, addend: 0x0, symName: __ZNSt3__14pairIPPPK4NodeS5_EC1B8ue170006IRS5_S5_LPv0EEEOT_OT0_, symObjAddr: 0x594C, symBinAddr: 0x100007E7C, symSize: 0x3C }
  - { offsetInCU: 0x117C7, offset: 0x117C7, size: 0x8, addend: 0x0, symName: __ZNSt3__14pairIPPPK4NodeS5_EC2B8ue170006IRS5_S5_LPv0EEEOT_OT0_, symObjAddr: 0x5988, symBinAddr: 0x100007EB8, symSize: 0x34 }
  - { offsetInCU: 0x11825, offset: 0x11825, size: 0x8, addend: 0x0, symName: __ZNSt3__118__unwrap_iter_implIPPPK4NodeLb1EE8__unwrapB8ue170006ES5_, symObjAddr: 0x59BC, symBinAddr: 0x100007EEC, symSize: 0x24 }
  - { offsetInCU: 0x11848, offset: 0x11848, size: 0x8, addend: 0x0, symName: __ZNSt3__14pairIPPPK4NodeS5_EC1B8ue170006IS5_S5_LPv0EEEOT_OT0_, symObjAddr: 0x59E0, symBinAddr: 0x100007F10, symSize: 0x3C }
  - { offsetInCU: 0x118A6, offset: 0x118A6, size: 0x8, addend: 0x0, symName: __ZNSt3__14pairIPPPK4NodeS5_EC2B8ue170006IS5_S5_LPv0EEEOT_OT0_, symObjAddr: 0x5A1C, symBinAddr: 0x100007F4C, symSize: 0x34 }
  - { offsetInCU: 0x11904, offset: 0x11904, size: 0x8, addend: 0x0, symName: __ZNSt3__118__unwrap_iter_implIPPPK4NodeLb1EE8__rewrapB8ue170006ES5_S5_, symObjAddr: 0x5A50, symBinAddr: 0x100007F80, symSize: 0x50 }
  - { offsetInCU: 0x11935, offset: 0x11935, size: 0x8, addend: 0x0, symName: __ZNSt3__114__split_bufferIPPK4NodeRNS_9allocatorIS4_EEE28__construct_at_end_with_sizeINS_13move_iteratorIPS4_EEEEvT_m, symObjAddr: 0x5AA0, symBinAddr: 0x100007FD0, symSize: 0xDC }
  - { offsetInCU: 0x1199B, offset: 0x1199B, size: 0x8, addend: 0x0, symName: __ZNSt3__114__split_bufferIPPK4NodeRNS_9allocatorIS4_EEE21_ConstructTransactionC1B8ue170006EPPS4_m, symObjAddr: 0x5BB8, symBinAddr: 0x1000080E8, symSize: 0x3C }
  - { offsetInCU: 0x119E1, offset: 0x119E1, size: 0x8, addend: 0x0, symName: __ZNSt3__116allocator_traitsINS_9allocatorIPPK4NodeEEE9constructB8ue170006IS5_JS5_EvEEvRS6_PT_DpOT0_, symObjAddr: 0x5BF4, symBinAddr: 0x100008124, symSize: 0x34 }
  - { offsetInCU: 0x11A38, offset: 0x11A38, size: 0x8, addend: 0x0, symName: __ZNSt3__114__split_bufferIPPK4NodeRNS_9allocatorIS4_EEE7__allocB8ue170006Ev, symObjAddr: 0x5C28, symBinAddr: 0x100008158, symSize: 0x28 }
  - { offsetInCU: 0x11A5E, offset: 0x11A5E, size: 0x8, addend: 0x0, symName: __ZNKSt3__113move_iteratorIPPPK4NodeEdeB8ue170006Ev, symObjAddr: 0x5C50, symBinAddr: 0x100008180, symSize: 0x18 }
  - { offsetInCU: 0x11A84, offset: 0x11A84, size: 0x8, addend: 0x0, symName: __ZNSt3__113move_iteratorIPPPK4NodeEppB8ue170006Ev, symObjAddr: 0x5C68, symBinAddr: 0x100008198, symSize: 0x20 }
  - { offsetInCU: 0x11AAA, offset: 0x11AAA, size: 0x8, addend: 0x0, symName: __ZNSt3__114__split_bufferIPPK4NodeRNS_9allocatorIS4_EEE21_ConstructTransactionD1B8ue170006Ev, symObjAddr: 0x5C88, symBinAddr: 0x1000081B8, symSize: 0x2C }
  - { offsetInCU: 0x11AD4, offset: 0x11AD4, size: 0x8, addend: 0x0, symName: __ZNSt3__114__split_bufferIPPK4NodeRNS_9allocatorIS4_EEE21_ConstructTransactionC2B8ue170006EPPS4_m, symObjAddr: 0x5CB4, symBinAddr: 0x1000081E4, symSize: 0x44 }
  - { offsetInCU: 0x11B1A, offset: 0x11B1A, size: 0x8, addend: 0x0, symName: __ZNSt3__19allocatorIPPK4NodeE9constructB8ue170006IS4_JS4_EEEvPT_DpOT0_, symObjAddr: 0x5CF8, symBinAddr: 0x100008228, symSize: 0x28 }
  - { offsetInCU: 0x11B70, offset: 0x11B70, size: 0x8, addend: 0x0, symName: __ZNSt3__117__compressed_pairIPPPK4NodeRNS_9allocatorIS4_EEE6secondB8ue170006Ev, symObjAddr: 0x5D20, symBinAddr: 0x100008250, symSize: 0x28 }
  - { offsetInCU: 0x11B96, offset: 0x11B96, size: 0x8, addend: 0x0, symName: __ZNSt3__122__compressed_pair_elemIRNS_9allocatorIPPK4NodeEELi1ELb0EE5__getB8ue170006Ev, symObjAddr: 0x5D48, symBinAddr: 0x100008278, symSize: 0x18 }
  - { offsetInCU: 0x11BBC, offset: 0x11BBC, size: 0x8, addend: 0x0, symName: __ZNSt3__114__split_bufferIPPK4NodeRNS_9allocatorIS4_EEE21_ConstructTransactionD2B8ue170006Ev, symObjAddr: 0x5D60, symBinAddr: 0x100008290, symSize: 0x20 }
  - { offsetInCU: 0x11BE6, offset: 0x11BE6, size: 0x8, addend: 0x0, symName: __ZNKSt3__113move_iteratorIPPPK4NodeE4baseB8ue170006Ev, symObjAddr: 0x5DF8, symBinAddr: 0x100008328, symSize: 0x18 }
  - { offsetInCU: 0x11C0C, offset: 0x11C0C, size: 0x8, addend: 0x0, symName: __ZNSt3__113move_iteratorIPPPK4NodeEC2B8ue170006ES5_, symObjAddr: 0x5E10, symBinAddr: 0x100008340, symSize: 0x20 }
  - { offsetInCU: 0x11C44, offset: 0x11C44, size: 0x8, addend: 0x0, symName: __ZNSt3__19allocatorIPPK4NodeE9constructB8ue170006IS4_JRKS4_EEEvPT_DpOT0_, symObjAddr: 0x5E30, symBinAddr: 0x100008360, symSize: 0x28 }
  - { offsetInCU: 0x11C9A, offset: 0x11C9A, size: 0x8, addend: 0x0, symName: __ZNSt3__19allocatorIPK4NodeE8allocateB8ue170006Em, symObjAddr: 0x5E58, symBinAddr: 0x100008388, symSize: 0x58 }
  - { offsetInCU: 0x11CD8, offset: 0x11CD8, size: 0x8, addend: 0x0, symName: __ZNSt3__116allocator_traitsINS_9allocatorIPK4NodeEEE8max_sizeB8ue170006IS5_vEEmRKS5_, symObjAddr: 0x5EB0, symBinAddr: 0x1000083E0, symSize: 0x24 }
  - { offsetInCU: 0x11D06, offset: 0x11D06, size: 0x8, addend: 0x0, symName: __ZNKSt3__19allocatorIPK4NodeE8max_sizeB8ue170006Ev, symObjAddr: 0x5F68, symBinAddr: 0x100008498, symSize: 0x14 }
  - { offsetInCU: 0x11D36, offset: 0x11D36, size: 0x8, addend: 0x0, symName: __ZNKSt3__123__move_backward_trivialclB8ue170006IPPK4NodeS5_Li0EEENS_4pairIPT_PT0_EES8_S8_SA_, symObjAddr: 0x6148, symBinAddr: 0x100008678, symSize: 0x48 }
  - { offsetInCU: 0x11D9E, offset: 0x11D9E, size: 0x8, addend: 0x0, symName: __ZNSt3__14pairIPPPK4NodeS5_EC1B8ue170006IRS5_S8_LPv0EEEOT_OT0_, symObjAddr: 0x6258, symBinAddr: 0x100008788, symSize: 0x3C }
  - { offsetInCU: 0x11DFC, offset: 0x11DFC, size: 0x8, addend: 0x0, symName: __ZNSt3__14pairIPPPK4NodeS5_EC2B8ue170006IRS5_S8_LPv0EEEOT_OT0_, symObjAddr: 0x6294, symBinAddr: 0x1000087C4, symSize: 0x34 }
  - { offsetInCU: 0x11E5A, offset: 0x11E5A, size: 0x8, addend: 0x0, symName: __ZNKSt3__16__lessIvvEclB8ue170006ImmEEbRKT_RKT0_, symObjAddr: 0x631C, symBinAddr: 0x10000884C, symSize: 0x34 }
  - { offsetInCU: 0x11EAE, offset: 0x11EAE, size: 0x8, addend: 0x0, symName: __ZNSt3__114__split_bufferIPPK4NodeRNS_9allocatorIS4_EEEC2EmmS7_, symObjAddr: 0x6350, symBinAddr: 0x100008880, symSize: 0xD4 }
  - { offsetInCU: 0x11F21, offset: 0x11F21, size: 0x8, addend: 0x0, symName: __ZNSt3__117__compressed_pairIPPPK4NodeRNS_9allocatorIS4_EEEC1B8ue170006IDnS8_EEOT_OT0_, symObjAddr: 0x6424, symBinAddr: 0x100008954, symSize: 0x3C }
  - { offsetInCU: 0x11F79, offset: 0x11F79, size: 0x8, addend: 0x0, symName: __ZNSt3__117__compressed_pairIPPPK4NodeRNS_9allocatorIS4_EEEC2B8ue170006IDnS8_EEOT_OT0_, symObjAddr: 0x64A0, symBinAddr: 0x1000089D0, symSize: 0x48 }
  - { offsetInCU: 0x11FD1, offset: 0x11FD1, size: 0x8, addend: 0x0, symName: __ZNSt3__122__compressed_pair_elemIRNS_9allocatorIPPK4NodeEELi1ELb0EEC2B8ue170006IS7_vEEOT_, symObjAddr: 0x64E8, symBinAddr: 0x100008A18, symSize: 0x20 }
  - { offsetInCU: 0x12013, offset: 0x12013, size: 0x8, addend: 0x0, symName: __ZNSt3__19allocatorIPPK4NodeE8allocateB8ue170006Em, symObjAddr: 0x6508, symBinAddr: 0x100008A38, symSize: 0x58 }
  - { offsetInCU: 0x12051, offset: 0x12051, size: 0x8, addend: 0x0, symName: __ZNSt3__116allocator_traitsINS_9allocatorIPPK4NodeEEE8max_sizeB8ue170006IS6_vEEmRKS6_, symObjAddr: 0x6560, symBinAddr: 0x100008A90, symSize: 0x24 }
  - { offsetInCU: 0x1207F, offset: 0x1207F, size: 0x8, addend: 0x0, symName: __ZNKSt3__19allocatorIPPK4NodeE8max_sizeB8ue170006Ev, symObjAddr: 0x6584, symBinAddr: 0x100008AB4, symSize: 0x14 }
  - { offsetInCU: 0x120A5, offset: 0x120A5, size: 0x8, addend: 0x0, symName: __ZNSt3__122__allocator_destructorINS_9allocatorIPK4NodeEEEC2B8ue170006ERS5_m, symObjAddr: 0x6598, symBinAddr: 0x100008AC8, symSize: 0x2C }
  - { offsetInCU: 0x120EB, offset: 0x120EB, size: 0x8, addend: 0x0, symName: __ZNSt3__110unique_ptrIPPK4NodeNS_22__allocator_destructorINS_9allocatorIS3_EEEEEC2B8ue170006ILb1EvEES4_NS_16__dependent_typeINS_27__unique_ptr_deleter_sfinaeIS8_EEXT_EE20__good_rval_ref_typeE, symObjAddr: 0x65C4, symBinAddr: 0x100008AF4, symSize: 0x48 }
  - { offsetInCU: 0x1213C, offset: 0x1213C, size: 0x8, addend: 0x0, symName: __ZNSt3__117__compressed_pairIPPK4NodeNS_22__allocator_destructorINS_9allocatorIS3_EEEEEC1B8ue170006IRS4_S8_EEOT_OT0_, symObjAddr: 0x660C, symBinAddr: 0x100008B3C, symSize: 0x3C }
  - { offsetInCU: 0x12194, offset: 0x12194, size: 0x8, addend: 0x0, symName: __ZNSt3__117__compressed_pairIPPK4NodeNS_22__allocator_destructorINS_9allocatorIS3_EEEEEC2B8ue170006IRS4_S8_EEOT_OT0_, symObjAddr: 0x6648, symBinAddr: 0x100008B78, symSize: 0x48 }
  - { offsetInCU: 0x121EC, offset: 0x121EC, size: 0x8, addend: 0x0, symName: __ZNSt3__122__compressed_pair_elemIPPK4NodeLi0ELb0EEC2B8ue170006IRS4_vEEOT_, symObjAddr: 0x6690, symBinAddr: 0x100008BC0, symSize: 0x24 }
  - { offsetInCU: 0x1222E, offset: 0x1222E, size: 0x8, addend: 0x0, symName: __ZNSt3__122__compressed_pair_elemINS_22__allocator_destructorINS_9allocatorIPK4NodeEEEELi1ELb0EEC2B8ue170006IS7_vEEOT_, symObjAddr: 0x66B4, symBinAddr: 0x100008BE4, symSize: 0x24 }
  - { offsetInCU: 0x12270, offset: 0x12270, size: 0x8, addend: 0x0, symName: __ZNKSt3__117__compressed_pairIPPK4NodeNS_22__allocator_destructorINS_9allocatorIS3_EEEEE5firstB8ue170006Ev, symObjAddr: 0x66D8, symBinAddr: 0x100008C08, symSize: 0x24 }
  - { offsetInCU: 0x12296, offset: 0x12296, size: 0x8, addend: 0x0, symName: __ZNKSt3__122__compressed_pair_elemIPPK4NodeLi0ELb0EE5__getB8ue170006Ev, symObjAddr: 0x66FC, symBinAddr: 0x100008C2C, symSize: 0x14 }
  - { offsetInCU: 0x122BC, offset: 0x122BC, size: 0x8, addend: 0x0, symName: __ZNSt3__117__compressed_pairIPPK4NodeNS_22__allocator_destructorINS_9allocatorIS3_EEEEE5firstB8ue170006Ev, symObjAddr: 0x6710, symBinAddr: 0x100008C40, symSize: 0x24 }
  - { offsetInCU: 0x122E2, offset: 0x122E2, size: 0x8, addend: 0x0, symName: __ZNSt3__122__compressed_pair_elemIPPK4NodeLi0ELb0EE5__getB8ue170006Ev, symObjAddr: 0x6734, symBinAddr: 0x100008C64, symSize: 0x14 }
  - { offsetInCU: 0x12308, offset: 0x12308, size: 0x8, addend: 0x0, symName: __ZNSt3__117__compressed_pairIPPPK4NodeNS_9allocatorIS4_EEE5firstB8ue170006Ev, symObjAddr: 0x6748, symBinAddr: 0x100008C78, symSize: 0x24 }
  - { offsetInCU: 0x1232E, offset: 0x1232E, size: 0x8, addend: 0x0, symName: __ZNSt3__122__compressed_pair_elemIPPPK4NodeLi0ELb0EE5__getB8ue170006Ev, symObjAddr: 0x676C, symBinAddr: 0x100008C9C, symSize: 0x14 }
  - { offsetInCU: 0x12354, offset: 0x12354, size: 0x8, addend: 0x0, symName: __ZNSt3__117__compressed_pairIPPPK4NodeRNS_9allocatorIS4_EEE5firstB8ue170006Ev, symObjAddr: 0x6780, symBinAddr: 0x100008CB0, symSize: 0x24 }
  - { offsetInCU: 0x1237A, offset: 0x1237A, size: 0x8, addend: 0x0, symName: __ZNSt3__110unique_ptrIPPK4NodeNS_22__allocator_destructorINS_9allocatorIS3_EEEEED2B8ue170006Ev, symObjAddr: 0x67A4, symBinAddr: 0x100008CD4, symSize: 0x30 }
  - { offsetInCU: 0x123A4, offset: 0x123A4, size: 0x8, addend: 0x0, symName: __ZNSt3__110unique_ptrIPPK4NodeNS_22__allocator_destructorINS_9allocatorIS3_EEEEE5resetB8ue170006ES4_, symObjAddr: 0x67D4, symBinAddr: 0x100008D04, symSize: 0x78 }
  - { offsetInCU: 0x123E8, offset: 0x123E8, size: 0x8, addend: 0x0, symName: __ZNSt3__117__compressed_pairIPPK4NodeNS_22__allocator_destructorINS_9allocatorIS3_EEEEE6secondB8ue170006Ev, symObjAddr: 0x684C, symBinAddr: 0x100008D7C, symSize: 0x28 }
  - { offsetInCU: 0x1240E, offset: 0x1240E, size: 0x8, addend: 0x0, symName: __ZNSt3__122__allocator_destructorINS_9allocatorIPK4NodeEEEclB8ue170006EPS4_, symObjAddr: 0x6874, symBinAddr: 0x100008DA4, symSize: 0x34 }
  - { offsetInCU: 0x12442, offset: 0x12442, size: 0x8, addend: 0x0, symName: __ZNSt3__122__compressed_pair_elemINS_22__allocator_destructorINS_9allocatorIPK4NodeEEEELi1ELb0EE5__getB8ue170006Ev, symObjAddr: 0x68A8, symBinAddr: 0x100008DD8, symSize: 0x14 }
  - { offsetInCU: 0x12468, offset: 0x12468, size: 0x8, addend: 0x0, symName: __ZNSt3__114__split_bufferIPPK4NodeRNS_9allocatorIS4_EEED2Ev, symObjAddr: 0x68BC, symBinAddr: 0x100008DEC, symSize: 0x8C }
  - { offsetInCU: 0x12494, offset: 0x12494, size: 0x8, addend: 0x0, symName: __ZNSt3__114__split_bufferIPPK4NodeRNS_9allocatorIS4_EEE5clearB8ue170006Ev, symObjAddr: 0x6948, symBinAddr: 0x100008E78, symSize: 0x28 }
  - { offsetInCU: 0x124BA, offset: 0x124BA, size: 0x8, addend: 0x0, symName: __ZNKSt3__114__split_bufferIPPK4NodeRNS_9allocatorIS4_EEE8capacityB8ue170006Ev, symObjAddr: 0x6970, symBinAddr: 0x100008EA0, symSize: 0x40 }
  - { offsetInCU: 0x124E0, offset: 0x124E0, size: 0x8, addend: 0x0, symName: __ZNSt3__114__split_bufferIPPK4NodeRNS_9allocatorIS4_EEE17__destruct_at_endB8ue170006EPS4_, symObjAddr: 0x69B0, symBinAddr: 0x100008EE0, symSize: 0x2C }
  - { offsetInCU: 0x12514, offset: 0x12514, size: 0x8, addend: 0x0, symName: __ZNSt3__114__split_bufferIPPK4NodeRNS_9allocatorIS4_EEE17__destruct_at_endB8ue170006EPS4_NS_17integral_constantIbLb0EEE, symObjAddr: 0x69DC, symBinAddr: 0x100008F0C, symSize: 0x80 }
  - { offsetInCU: 0x12554, offset: 0x12554, size: 0x8, addend: 0x0, symName: __ZNKSt3__114__split_bufferIPPK4NodeRNS_9allocatorIS4_EEE9__end_capB8ue170006Ev, symObjAddr: 0x6A5C, symBinAddr: 0x100008F8C, symSize: 0x28 }
  - { offsetInCU: 0x1257A, offset: 0x1257A, size: 0x8, addend: 0x0, symName: __ZNKSt3__117__compressed_pairIPPPK4NodeRNS_9allocatorIS4_EEE5firstB8ue170006Ev, symObjAddr: 0x6A84, symBinAddr: 0x100008FB4, symSize: 0x24 }
  - { offsetInCU: 0x125A0, offset: 0x125A0, size: 0x8, addend: 0x0, symName: __ZNSt3__19allocatorIPK4NodeE9constructB8ue170006IS3_JRKS3_EEEvPT_DpOT0_, symObjAddr: 0x6AA8, symBinAddr: 0x100008FD8, symSize: 0x28 }
  - { offsetInCU: 0x125F6, offset: 0x125F6, size: 0x8, addend: 0x0, symName: __ZNSt3__15dequeIPK4NodeNS_9allocatorIS3_EEE5frontEv, symObjAddr: 0x6AD0, symBinAddr: 0x100009000, symSize: 0x50 }
  - { offsetInCU: 0x1261E, offset: 0x1261E, size: 0x8, addend: 0x0, symName: __ZNSt3__15dequeIPK4NodeNS_9allocatorIS3_EEE9pop_frontEv, symObjAddr: 0x6B20, symBinAddr: 0x100009050, symSize: 0xD4 }
  - { offsetInCU: 0x12673, offset: 0x12673, size: 0x8, addend: 0x0, symName: __ZNKSt3__15dequeIPK4NodeNS_9allocatorIS3_EEE23__annotate_shrink_frontB8ue170006Emm, symObjAddr: 0x6BF4, symBinAddr: 0x100009124, symSize: 0x70 }
  - { offsetInCU: 0x126B7, offset: 0x126B7, size: 0x8, addend: 0x0, symName: __ZNSt3__15dequeIPK4NodeNS_9allocatorIS3_EEE26__maybe_remove_front_spareB8ue170006Eb, symObjAddr: 0x6C64, symBinAddr: 0x100009194, symSize: 0xEC }
  - { offsetInCU: 0x126EC, offset: 0x126EC, size: 0x8, addend: 0x0, symName: __ZNKSt3__15dequeIPK4NodeNS_9allocatorIS3_EEE20__front_spare_blocksB8ue170006Ev, symObjAddr: 0x6D50, symBinAddr: 0x100009280, symSize: 0x2C }
  - { offsetInCU: 0x12712, offset: 0x12712, size: 0x8, addend: 0x0, symName: __ZNSt3__15dequeIPK4NodeNS_9allocatorIS3_EEE9push_backEOS3_, symObjAddr: 0x6D7C, symBinAddr: 0x1000092AC, symSize: 0xAC }
  - { offsetInCU: 0x1275D, offset: 0x1275D, size: 0x8, addend: 0x0, symName: __ZNSt3__116allocator_traitsINS_9allocatorIPK4NodeEEE9constructB8ue170006IS4_JS4_EvEEvRS5_PT_DpOT0_, symObjAddr: 0x6E28, symBinAddr: 0x100009358, symSize: 0x34 }
  - { offsetInCU: 0x127B4, offset: 0x127B4, size: 0x8, addend: 0x0, symName: __ZNSt3__19allocatorIPK4NodeE9constructB8ue170006IS3_JS3_EEEvPT_DpOT0_, symObjAddr: 0x6E5C, symBinAddr: 0x10000938C, symSize: 0x28 }
  - { offsetInCU: 0x1280A, offset: 0x1280A, size: 0x8, addend: 0x0, symName: __ZNSt3__18__iom_t4IcEC1B8ue170006Ec, symObjAddr: 0x6E84, symBinAddr: 0x1000093B4, symSize: 0x34 }
  - { offsetInCU: 0x12842, offset: 0x12842, size: 0x8, addend: 0x0, symName: __ZNSt3__18__iom_t4IcEC2B8ue170006Ec, symObjAddr: 0x6EB8, symBinAddr: 0x1000093E8, symSize: 0x20 }
  - { offsetInCU: 0x1287A, offset: 0x1287A, size: 0x8, addend: 0x0, symName: __ZNSt3__19basic_iosIcNS_11char_traitsIcEEE4fillB8ue170006Ec, symObjAddr: 0x6ED8, symBinAddr: 0x100009408, symSize: 0x74 }
  - { offsetInCU: 0x128C0, offset: 0x128C0, size: 0x8, addend: 0x0, symName: __ZNSt3__16vectorIP4NodeNS_9allocatorIS2_EEEC2B8ue170006Ev, symObjAddr: 0x6F4C, symBinAddr: 0x10000947C, symSize: 0x4C }
  - { offsetInCU: 0x128EA, offset: 0x128EA, size: 0x8, addend: 0x0, symName: __ZNSt3__117__compressed_pairIPP4NodeNS_9allocatorIS2_EEEC1B8ue170006IDnNS_18__default_init_tagEEEOT_OT0_, symObjAddr: 0x6F98, symBinAddr: 0x1000094C8, symSize: 0x3C }
  - { offsetInCU: 0x12942, offset: 0x12942, size: 0x8, addend: 0x0, symName: __ZNSt3__117__compressed_pairIPP4NodeNS_9allocatorIS2_EEEC2B8ue170006IDnNS_18__default_init_tagEEEOT_OT0_, symObjAddr: 0x6FD4, symBinAddr: 0x100009504, symSize: 0x40 }
  - { offsetInCU: 0x1299A, offset: 0x1299A, size: 0x8, addend: 0x0, symName: __ZNSt3__122__compressed_pair_elemIPP4NodeLi0ELb0EEC2B8ue170006IDnvEEOT_, symObjAddr: 0x7014, symBinAddr: 0x100009544, symSize: 0x1C }
  - { offsetInCU: 0x129DC, offset: 0x129DC, size: 0x8, addend: 0x0, symName: __ZNSt3__122__compressed_pair_elemINS_9allocatorIP4NodeEELi1ELb1EEC2B8ue170006ENS_18__default_init_tagE, symObjAddr: 0x7030, symBinAddr: 0x100009560, symSize: 0x2C }
  - { offsetInCU: 0x12A10, offset: 0x12A10, size: 0x8, addend: 0x0, symName: __ZNSt3__19allocatorIP4NodeEC2B8ue170006Ev, symObjAddr: 0x705C, symBinAddr: 0x10000958C, symSize: 0x2C }
  - { offsetInCU: 0x12A3A, offset: 0x12A3A, size: 0x8, addend: 0x0, symName: __ZNSt3__116__non_trivial_ifILb1ENS_9allocatorIP4NodeEEEC2B8ue170006Ev, symObjAddr: 0x7088, symBinAddr: 0x1000095B8, symSize: 0x14 }
  - { offsetInCU: 0x12A64, offset: 0x12A64, size: 0x8, addend: 0x0, symName: __ZNSt3__16vectorIP4NodeNS_9allocatorIS2_EEED2B8ue170006Ev, symObjAddr: 0x709C, symBinAddr: 0x1000095CC, symSize: 0x44 }
  - { offsetInCU: 0x12A8E, offset: 0x12A8E, size: 0x8, addend: 0x0, symName: __ZNSt3__16vectorIP4NodeNS_9allocatorIS2_EEE16__destroy_vectorC1B8ue170006ERS5_, symObjAddr: 0x70E0, symBinAddr: 0x100009610, symSize: 0x34 }
  - { offsetInCU: 0x12AC7, offset: 0x12AC7, size: 0x8, addend: 0x0, symName: __ZNSt3__16vectorIP4NodeNS_9allocatorIS2_EEE16__destroy_vectorclB8ue170006Ev, symObjAddr: 0x7114, symBinAddr: 0x100009644, symSize: 0x90 }
  - { offsetInCU: 0x12AED, offset: 0x12AED, size: 0x8, addend: 0x0, symName: __ZNSt3__16vectorIP4NodeNS_9allocatorIS2_EEE16__destroy_vectorC2B8ue170006ERS5_, symObjAddr: 0x71A4, symBinAddr: 0x1000096D4, symSize: 0x20 }
  - { offsetInCU: 0x12B26, offset: 0x12B26, size: 0x8, addend: 0x0, symName: __ZNSt3__16vectorIP4NodeNS_9allocatorIS2_EEE7__clearB8ue170006Ev, symObjAddr: 0x71C4, symBinAddr: 0x1000096F4, symSize: 0x28 }
  - { offsetInCU: 0x12B4C, offset: 0x12B4C, size: 0x8, addend: 0x0, symName: __ZNKSt3__16vectorIP4NodeNS_9allocatorIS2_EEE17__annotate_deleteB8ue170006Ev, symObjAddr: 0x71EC, symBinAddr: 0x10000971C, symSize: 0xB8 }
  - { offsetInCU: 0x12B72, offset: 0x12B72, size: 0x8, addend: 0x0, symName: __ZNSt3__116allocator_traitsINS_9allocatorIP4NodeEEE10deallocateB8ue170006ERS4_PS3_m, symObjAddr: 0x72A4, symBinAddr: 0x1000097D4, symSize: 0x34 }
  - { offsetInCU: 0x12BB4, offset: 0x12BB4, size: 0x8, addend: 0x0, symName: __ZNSt3__16vectorIP4NodeNS_9allocatorIS2_EEE7__allocB8ue170006Ev, symObjAddr: 0x72D8, symBinAddr: 0x100009808, symSize: 0x28 }
  - { offsetInCU: 0x12BDA, offset: 0x12BDA, size: 0x8, addend: 0x0, symName: __ZNKSt3__16vectorIP4NodeNS_9allocatorIS2_EEE8capacityB8ue170006Ev, symObjAddr: 0x7300, symBinAddr: 0x100009830, symSize: 0x40 }
  - { offsetInCU: 0x12C00, offset: 0x12C00, size: 0x8, addend: 0x0, symName: __ZNSt3__16vectorIP4NodeNS_9allocatorIS2_EEE22__base_destruct_at_endB8ue170006EPS2_, symObjAddr: 0x7340, symBinAddr: 0x100009870, symSize: 0x8C }
  - { offsetInCU: 0x12C44, offset: 0x12C44, size: 0x8, addend: 0x0, symName: __ZNSt3__116allocator_traitsINS_9allocatorIP4NodeEEE7destroyB8ue170006IS3_vEEvRS4_PT_, symObjAddr: 0x73CC, symBinAddr: 0x1000098FC, symSize: 0x2C }
  - { offsetInCU: 0x12C81, offset: 0x12C81, size: 0x8, addend: 0x0, symName: __ZNSt3__19allocatorIP4NodeE7destroyB8ue170006EPS2_, symObjAddr: 0x740C, symBinAddr: 0x10000993C, symSize: 0x14 }
  - { offsetInCU: 0x12CB5, offset: 0x12CB5, size: 0x8, addend: 0x0, symName: __ZNKSt3__16vectorIP4NodeNS_9allocatorIS2_EEE31__annotate_contiguous_containerB8ue170006EPKvS7_S7_S7_, symObjAddr: 0x7420, symBinAddr: 0x100009950, symSize: 0x20 }
  - { offsetInCU: 0x12D07, offset: 0x12D07, size: 0x8, addend: 0x0, symName: __ZNKSt3__16vectorIP4NodeNS_9allocatorIS2_EEE4dataB8ue170006Ev, symObjAddr: 0x7440, symBinAddr: 0x100009970, symSize: 0x28 }
  - { offsetInCU: 0x12D2D, offset: 0x12D2D, size: 0x8, addend: 0x0, symName: __ZNSt3__19allocatorIP4NodeE10deallocateB8ue170006EPS2_m, symObjAddr: 0x7468, symBinAddr: 0x100009998, symSize: 0x40 }
  - { offsetInCU: 0x12D6F, offset: 0x12D6F, size: 0x8, addend: 0x0, symName: __ZNSt3__117__compressed_pairIPP4NodeNS_9allocatorIS2_EEE6secondB8ue170006Ev, symObjAddr: 0x74A8, symBinAddr: 0x1000099D8, symSize: 0x24 }
  - { offsetInCU: 0x12D95, offset: 0x12D95, size: 0x8, addend: 0x0, symName: __ZNSt3__122__compressed_pair_elemINS_9allocatorIP4NodeEELi1ELb1EE5__getB8ue170006Ev, symObjAddr: 0x74CC, symBinAddr: 0x1000099FC, symSize: 0x14 }
  - { offsetInCU: 0x12DBB, offset: 0x12DBB, size: 0x8, addend: 0x0, symName: __ZNKSt3__16vectorIP4NodeNS_9allocatorIS2_EEE9__end_capB8ue170006Ev, symObjAddr: 0x74E0, symBinAddr: 0x100009A10, symSize: 0x28 }
  - { offsetInCU: 0x12DE1, offset: 0x12DE1, size: 0x8, addend: 0x0, symName: __ZNKSt3__117__compressed_pairIPP4NodeNS_9allocatorIS2_EEE5firstB8ue170006Ev, symObjAddr: 0x7508, symBinAddr: 0x100009A38, symSize: 0x24 }
  - { offsetInCU: 0x12E07, offset: 0x12E07, size: 0x8, addend: 0x0, symName: __ZNKSt3__122__compressed_pair_elemIPP4NodeLi0ELb0EE5__getB8ue170006Ev, symObjAddr: 0x752C, symBinAddr: 0x100009A5C, symSize: 0x14 }
  - { offsetInCU: 0x12E2D, offset: 0x12E2D, size: 0x8, addend: 0x0, symName: __ZNKSt3__16vectorIP4NodeNS_9allocatorIS2_EEE8max_sizeEv, symObjAddr: 0x7540, symBinAddr: 0x100009A70, symSize: 0x60 }
  - { offsetInCU: 0x12E55, offset: 0x12E55, size: 0x8, addend: 0x0, symName: __ZNKSt3__16vectorIP4NodeNS_9allocatorIS2_EEE20__throw_length_errorB8ue170006Ev, symObjAddr: 0x75A0, symBinAddr: 0x100009AD0, symSize: 0x1C }
  - { offsetInCU: 0x12E7B, offset: 0x12E7B, size: 0x8, addend: 0x0, symName: __ZNSt3__114__split_bufferIP4NodeRNS_9allocatorIS2_EEEC1EmmS5_, symObjAddr: 0x75BC, symBinAddr: 0x100009AEC, symSize: 0x44 }
  - { offsetInCU: 0x12ED1, offset: 0x12ED1, size: 0x8, addend: 0x0, symName: __ZNSt3__114__split_bufferIP4NodeRNS_9allocatorIS2_EEED1Ev, symObjAddr: 0x7710, symBinAddr: 0x100009C40, symSize: 0x2C }
  - { offsetInCU: 0x12F07, offset: 0x12F07, size: 0x8, addend: 0x0, symName: __ZNSt3__116allocator_traitsINS_9allocatorIP4NodeEEE8max_sizeB8ue170006IS4_vEEmRKS4_, symObjAddr: 0x7768, symBinAddr: 0x100009C98, symSize: 0x24 }
  - { offsetInCU: 0x12F35, offset: 0x12F35, size: 0x8, addend: 0x0, symName: __ZNKSt3__16vectorIP4NodeNS_9allocatorIS2_EEE7__allocB8ue170006Ev, symObjAddr: 0x778C, symBinAddr: 0x100009CBC, symSize: 0x28 }
  - { offsetInCU: 0x12F5B, offset: 0x12F5B, size: 0x8, addend: 0x0, symName: __ZNSt3__114numeric_limitsIlE3maxB8ue170006Ev, symObjAddr: 0x77B4, symBinAddr: 0x100009CE4, symSize: 0x14 }
  - { offsetInCU: 0x12F6F, offset: 0x12F6F, size: 0x8, addend: 0x0, symName: __ZNKSt3__19allocatorIP4NodeE8max_sizeB8ue170006Ev, symObjAddr: 0x781C, symBinAddr: 0x100009D4C, symSize: 0x14 }
  - { offsetInCU: 0x12F95, offset: 0x12F95, size: 0x8, addend: 0x0, symName: __ZNKSt3__117__compressed_pairIPP4NodeNS_9allocatorIS2_EEE6secondB8ue170006Ev, symObjAddr: 0x7830, symBinAddr: 0x100009D60, symSize: 0x24 }
  - { offsetInCU: 0x12FBB, offset: 0x12FBB, size: 0x8, addend: 0x0, symName: __ZNKSt3__122__compressed_pair_elemINS_9allocatorIP4NodeEELi1ELb1EE5__getB8ue170006Ev, symObjAddr: 0x7854, symBinAddr: 0x100009D84, symSize: 0x14 }
  - { offsetInCU: 0x12FE1, offset: 0x12FE1, size: 0x8, addend: 0x0, symName: __ZNSt3__123__libcpp_numeric_limitsIlLb1EE3maxB8ue170006Ev, symObjAddr: 0x7868, symBinAddr: 0x100009D98, symSize: 0x8 }
  - { offsetInCU: 0x12FF5, offset: 0x12FF5, size: 0x8, addend: 0x0, symName: __ZNSt12length_errorC1B8ue170006EPKc, symObjAddr: 0x78D4, symBinAddr: 0x100009E04, symSize: 0x34 }
  - { offsetInCU: 0x1302D, offset: 0x1302D, size: 0x8, addend: 0x0, symName: __ZNSt12length_errorC2B8ue170006EPKc, symObjAddr: 0x7908, symBinAddr: 0x100009E38, symSize: 0x4C }
  - { offsetInCU: 0x13065, offset: 0x13065, size: 0x8, addend: 0x0, symName: __ZNSt3__114__split_bufferIP4NodeRNS_9allocatorIS2_EEEC2EmmS5_, symObjAddr: 0x7954, symBinAddr: 0x100009E84, symSize: 0xD4 }
  - { offsetInCU: 0x130D8, offset: 0x130D8, size: 0x8, addend: 0x0, symName: __ZNSt3__117__compressed_pairIPP4NodeRNS_9allocatorIS2_EEEC1B8ue170006IDnS6_EEOT_OT0_, symObjAddr: 0x7A28, symBinAddr: 0x100009F58, symSize: 0x3C }
  - { offsetInCU: 0x13130, offset: 0x13130, size: 0x8, addend: 0x0, symName: __ZNSt3__114__split_bufferIP4NodeRNS_9allocatorIS2_EEE7__allocB8ue170006Ev, symObjAddr: 0x7AA4, symBinAddr: 0x100009FD4, symSize: 0x28 }
  - { offsetInCU: 0x13156, offset: 0x13156, size: 0x8, addend: 0x0, symName: __ZNSt3__114__split_bufferIP4NodeRNS_9allocatorIS2_EEE9__end_capB8ue170006Ev, symObjAddr: 0x7ACC, symBinAddr: 0x100009FFC, symSize: 0x28 }
  - { offsetInCU: 0x1317C, offset: 0x1317C, size: 0x8, addend: 0x0, symName: __ZNSt3__117__compressed_pairIPP4NodeRNS_9allocatorIS2_EEEC2B8ue170006IDnS6_EEOT_OT0_, symObjAddr: 0x7AF4, symBinAddr: 0x10000A024, symSize: 0x48 }
  - { offsetInCU: 0x131D4, offset: 0x131D4, size: 0x8, addend: 0x0, symName: __ZNSt3__122__compressed_pair_elemIRNS_9allocatorIP4NodeEELi1ELb0EEC2B8ue170006IS5_vEEOT_, symObjAddr: 0x7B3C, symBinAddr: 0x10000A06C, symSize: 0x20 }
  - { offsetInCU: 0x13216, offset: 0x13216, size: 0x8, addend: 0x0, symName: __ZNSt3__19allocatorIP4NodeE8allocateB8ue170006Em, symObjAddr: 0x7B5C, symBinAddr: 0x10000A08C, symSize: 0x58 }
  - { offsetInCU: 0x1324A, offset: 0x1324A, size: 0x8, addend: 0x0, symName: __ZNSt3__117__compressed_pairIPP4NodeRNS_9allocatorIS2_EEE6secondB8ue170006Ev, symObjAddr: 0x7BB4, symBinAddr: 0x10000A0E4, symSize: 0x28 }
  - { offsetInCU: 0x13270, offset: 0x13270, size: 0x8, addend: 0x0, symName: __ZNSt3__122__compressed_pair_elemIRNS_9allocatorIP4NodeEELi1ELb0EE5__getB8ue170006Ev, symObjAddr: 0x7BDC, symBinAddr: 0x10000A10C, symSize: 0x18 }
  - { offsetInCU: 0x13296, offset: 0x13296, size: 0x8, addend: 0x0, symName: __ZNSt3__117__compressed_pairIPP4NodeRNS_9allocatorIS2_EEE5firstB8ue170006Ev, symObjAddr: 0x7BF4, symBinAddr: 0x10000A124, symSize: 0x24 }
  - { offsetInCU: 0x132BC, offset: 0x132BC, size: 0x8, addend: 0x0, symName: __ZNSt3__122__compressed_pair_elemIPP4NodeLi0ELb0EE5__getB8ue170006Ev, symObjAddr: 0x7C18, symBinAddr: 0x10000A148, symSize: 0x14 }
  - { offsetInCU: 0x132E2, offset: 0x132E2, size: 0x8, addend: 0x0, symName: __ZNSt3__116reverse_iteratorIPP4NodeEC1B8ue170006ES3_, symObjAddr: 0x7CA4, symBinAddr: 0x10000A1D4, symSize: 0x34 }
  - { offsetInCU: 0x1331A, offset: 0x1331A, size: 0x8, addend: 0x0, symName: __ZNKSt3__116reverse_iteratorIPP4NodeE4baseB8ue170006Ev, symObjAddr: 0x7CD8, symBinAddr: 0x10000A208, symSize: 0x18 }
  - { offsetInCU: 0x13340, offset: 0x13340, size: 0x8, addend: 0x0, symName: __ZNSt3__16vectorIP4NodeNS_9allocatorIS2_EEE9__end_capB8ue170006Ev, symObjAddr: 0x7D2C, symBinAddr: 0x10000A25C, symSize: 0x28 }
  - { offsetInCU: 0x13366, offset: 0x13366, size: 0x8, addend: 0x0, symName: __ZNKSt3__16vectorIP4NodeNS_9allocatorIS2_EEE14__annotate_newB8ue170006Em, symObjAddr: 0x7D54, symBinAddr: 0x10000A284, symSize: 0xAC }
  - { offsetInCU: 0x133BE, offset: 0x133BE, size: 0x8, addend: 0x0, symName: __ZNKSt3__111__move_loopINS_17_ClassicAlgPolicyEEclB8ue170006INS_16reverse_iteratorIPP4NodeEES8_S8_EENS_4pairIT_T1_EESA_T0_SB_, symObjAddr: 0x80F0, symBinAddr: 0x10000A620, symSize: 0xA0 }
  - { offsetInCU: 0x1342E, offset: 0x1342E, size: 0x8, addend: 0x0, symName: __ZNSt3__18_IterOpsINS_17_ClassicAlgPolicyEE11__iter_moveB8ue170006IRNS_16reverse_iteratorIPP4NodeEEEENS_9enable_ifIXsr12is_referenceIDTdeclsr3stdE7declvalIRT_EEEEE5valueEDTclsr3stdE4movedeclsr3stdE7declvalISC_EEEEE4typeEOSB_, symObjAddr: 0x8324, symBinAddr: 0x10000A854, symSize: 0x28 }
  - { offsetInCU: 0x1345A, offset: 0x1345A, size: 0x8, addend: 0x0, symName: __ZNKSt3__116reverse_iteratorIPP4NodeEdeB8ue170006Ev, symObjAddr: 0x834C, symBinAddr: 0x10000A87C, symSize: 0x28 }
  - { offsetInCU: 0x1348E, offset: 0x1348E, size: 0x8, addend: 0x0, symName: __ZNSt3__116reverse_iteratorIPP4NodeEppB8ue170006Ev, symObjAddr: 0x8374, symBinAddr: 0x10000A8A4, symSize: 0x20 }
  - { offsetInCU: 0x134B4, offset: 0x134B4, size: 0x8, addend: 0x0, symName: __ZNSt3__18_IterOpsINS_17_ClassicAlgPolicyEE25__validate_iter_referenceB8ue170006IRNS_16reverse_iteratorIPP4NodeEEEEvv, symObjAddr: 0x8394, symBinAddr: 0x10000A8C4, symSize: 0x4 }
  - { offsetInCU: 0x134D2, offset: 0x134D2, size: 0x8, addend: 0x0, symName: __ZNSt3__118__unwrap_iter_implINS_16reverse_iteratorIPP4NodeEELb0EE8__unwrapB8ue170006ES5_, symObjAddr: 0x8398, symBinAddr: 0x10000A8C8, symSize: 0x24 }
  - { offsetInCU: 0x134FA, offset: 0x134FA, size: 0x8, addend: 0x0, symName: __ZNSt3__14pairINS_16reverse_iteratorIPP4NodeEES5_EC1B8ue170006IS5_S5_LPv0EEEOT_OT0_, symObjAddr: 0x83BC, symBinAddr: 0x10000A8EC, symSize: 0x3C }
  - { offsetInCU: 0x13558, offset: 0x13558, size: 0x8, addend: 0x0, symName: __ZNSt3__14pairINS_16reverse_iteratorIPP4NodeEES5_EC2B8ue170006IS5_S5_LPv0EEEOT_OT0_, symObjAddr: 0x83F8, symBinAddr: 0x10000A928, symSize: 0x34 }
  - { offsetInCU: 0x135B6, offset: 0x135B6, size: 0x8, addend: 0x0, symName: __ZNSt3__118__unwrap_iter_implINS_16reverse_iteratorIPP4NodeEELb0EE8__rewrapB8ue170006ES5_S5_, symObjAddr: 0x842C, symBinAddr: 0x10000A95C, symSize: 0x2C }
  - { offsetInCU: 0x135E3, offset: 0x135E3, size: 0x8, addend: 0x0, symName: __ZNSt3__116reverse_iteratorIPP4NodeEC2B8ue170006ES3_, symObjAddr: 0x8458, symBinAddr: 0x10000A988, symSize: 0x28 }
  - { offsetInCU: 0x1361B, offset: 0x1361B, size: 0x8, addend: 0x0, symName: __ZNSt3__117__compressed_pairIPP4NodeNS_9allocatorIS2_EEE5firstB8ue170006Ev, symObjAddr: 0x8480, symBinAddr: 0x10000A9B0, symSize: 0x24 }
  - { offsetInCU: 0x13641, offset: 0x13641, size: 0x8, addend: 0x0, symName: __ZNSt3__114__split_bufferIP4NodeRNS_9allocatorIS2_EEED2Ev, symObjAddr: 0x84A4, symBinAddr: 0x10000A9D4, symSize: 0x8C }
  - { offsetInCU: 0x1366D, offset: 0x1366D, size: 0x8, addend: 0x0, symName: __ZNSt3__114__split_bufferIP4NodeRNS_9allocatorIS2_EEE5clearB8ue170006Ev, symObjAddr: 0x8530, symBinAddr: 0x10000AA60, symSize: 0x28 }
  - { offsetInCU: 0x13693, offset: 0x13693, size: 0x8, addend: 0x0, symName: __ZNKSt3__114__split_bufferIP4NodeRNS_9allocatorIS2_EEE8capacityB8ue170006Ev, symObjAddr: 0x8558, symBinAddr: 0x10000AA88, symSize: 0x40 }
  - { offsetInCU: 0x136B9, offset: 0x136B9, size: 0x8, addend: 0x0, symName: __ZNSt3__114__split_bufferIP4NodeRNS_9allocatorIS2_EEE17__destruct_at_endB8ue170006EPS2_, symObjAddr: 0x8598, symBinAddr: 0x10000AAC8, symSize: 0x2C }
  - { offsetInCU: 0x136ED, offset: 0x136ED, size: 0x8, addend: 0x0, symName: __ZNSt3__114__split_bufferIP4NodeRNS_9allocatorIS2_EEE17__destruct_at_endB8ue170006EPS2_NS_17integral_constantIbLb0EEE, symObjAddr: 0x85C4, symBinAddr: 0x10000AAF4, symSize: 0x80 }
  - { offsetInCU: 0x1372D, offset: 0x1372D, size: 0x8, addend: 0x0, symName: __ZNKSt3__114__split_bufferIP4NodeRNS_9allocatorIS2_EEE9__end_capB8ue170006Ev, symObjAddr: 0x8644, symBinAddr: 0x10000AB74, symSize: 0x28 }
  - { offsetInCU: 0x13753, offset: 0x13753, size: 0x8, addend: 0x0, symName: __ZNKSt3__117__compressed_pairIPP4NodeRNS_9allocatorIS2_EEE5firstB8ue170006Ev, symObjAddr: 0x866C, symBinAddr: 0x10000AB9C, symSize: 0x24 }
  - { offsetInCU: 0x13779, offset: 0x13779, size: 0x8, addend: 0x0, symName: __ZNSt3__16vectorIP4NodeNS_9allocatorIS2_EEE22__construct_one_at_endB8ue170006IJS2_EEEvDpOT_, symObjAddr: 0x8690, symBinAddr: 0x10000ABC0, symSize: 0x90 }
  - { offsetInCU: 0x137C8, offset: 0x137C8, size: 0x8, addend: 0x0, symName: __ZNSt3__16vectorIP4NodeNS_9allocatorIS2_EEE21__push_back_slow_pathIS2_EEvOT_, symObjAddr: 0x8720, symBinAddr: 0x10000AC50, symSize: 0xD8 }
  - { offsetInCU: 0x1383F, offset: 0x1383F, size: 0x8, addend: 0x0, symName: __ZNSt3__16vectorIP4NodeNS_9allocatorIS2_EEE21_ConstructTransactionC1B8ue170006ERS5_m, symObjAddr: 0x87F8, symBinAddr: 0x10000AD28, symSize: 0x3C }
  - { offsetInCU: 0x13887, offset: 0x13887, size: 0x8, addend: 0x0, symName: __ZNSt3__116allocator_traitsINS_9allocatorIP4NodeEEE9constructB8ue170006IS3_JS3_EvEEvRS4_PT_DpOT0_, symObjAddr: 0x8834, symBinAddr: 0x10000AD64, symSize: 0x34 }
  - { offsetInCU: 0x138DE, offset: 0x138DE, size: 0x8, addend: 0x0, symName: __ZNSt3__16vectorIP4NodeNS_9allocatorIS2_EEE21_ConstructTransactionD1B8ue170006Ev, symObjAddr: 0x8868, symBinAddr: 0x10000AD98, symSize: 0x2C }
  - { offsetInCU: 0x13908, offset: 0x13908, size: 0x8, addend: 0x0, symName: __ZNSt3__16vectorIP4NodeNS_9allocatorIS2_EEE21_ConstructTransactionC2B8ue170006ERS5_m, symObjAddr: 0x8894, symBinAddr: 0x10000ADC4, symSize: 0x44 }
  - { offsetInCU: 0x13950, offset: 0x13950, size: 0x8, addend: 0x0, symName: __ZNSt3__19allocatorIP4NodeE9constructB8ue170006IS2_JS2_EEEvPT_DpOT0_, symObjAddr: 0x88D8, symBinAddr: 0x10000AE08, symSize: 0x28 }
  - { offsetInCU: 0x139A6, offset: 0x139A6, size: 0x8, addend: 0x0, symName: __ZNSt3__16vectorIP4NodeNS_9allocatorIS2_EEE21_ConstructTransactionD2B8ue170006Ev, symObjAddr: 0x8900, symBinAddr: 0x10000AE30, symSize: 0x20 }
  - { offsetInCU: 0x139D0, offset: 0x139D0, size: 0x8, addend: 0x0, symName: __ZNKSt3__16vectorIP4NodeNS_9allocatorIS2_EEE11__recommendB8ue170006Em, symObjAddr: 0x8920, symBinAddr: 0x10000AE50, symSize: 0xB4 }
  - { offsetInCU: 0x13A25, offset: 0x13A25, size: 0x8, addend: 0x0, symName: __ZNSt3__19basic_iosIcNS_11char_traitsIcEEEC2B8ue170006Ev, symObjAddr: 0x89D4, symBinAddr: 0x10000AF04, symSize: 0x44 }
  - { offsetInCU: 0x13A4F, offset: 0x13A4F, size: 0x8, addend: 0x0, symName: __ZNSt3__114basic_iostreamIcNS_11char_traitsIcEEEC2B8ue170006EPNS_15basic_streambufIcS2_EE, symObjAddr: 0x8A18, symBinAddr: 0x10000AF48, symSize: 0xAC }
  - { offsetInCU: 0x13A95, offset: 0x13A95, size: 0x8, addend: 0x0, symName: __ZNSt3__115basic_stringbufIcNS_11char_traitsIcEENS_9allocatorIcEEEC1B8ue170006Ej, symObjAddr: 0x8AC4, symBinAddr: 0x10000AFF4, symSize: 0x34 }
  - { offsetInCU: 0x13ACE, offset: 0x13ACE, size: 0x8, addend: 0x0, symName: __ZNSt3__18ios_baseC2B8ue170006Ev, symObjAddr: 0x8AF8, symBinAddr: 0x10000B028, symSize: 0x24 }
  - { offsetInCU: 0x13AF8, offset: 0x13AF8, size: 0x8, addend: 0x0, symName: __ZNSt3__113basic_istreamIcNS_11char_traitsIcEEEC2B8ue170006EPNS_15basic_streambufIcS2_EE, symObjAddr: 0x8B1C, symBinAddr: 0x10000B04C, symSize: 0x64 }
  - { offsetInCU: 0x13B3D, offset: 0x13B3D, size: 0x8, addend: 0x0, symName: __ZNSt3__113basic_ostreamIcNS_11char_traitsIcEEEC2B8ue170006Ev, symObjAddr: 0x8B80, symBinAddr: 0x10000B0B0, symSize: 0x34 }
  - { offsetInCU: 0x13B74, offset: 0x13B74, size: 0x8, addend: 0x0, symName: __ZNSt3__19basic_iosIcNS_11char_traitsIcEEE4initB8ue170006EPNS_15basic_streambufIcS2_EE, symObjAddr: 0x8BB4, symBinAddr: 0x10000B0E4, symSize: 0x44 }
  - { offsetInCU: 0x13BAB, offset: 0x13BAB, size: 0x8, addend: 0x0, symName: __ZNSt3__115basic_stringbufIcNS_11char_traitsIcEENS_9allocatorIcEEEC2B8ue170006Ej, symObjAddr: 0x8BF8, symBinAddr: 0x10000B128, symSize: 0x60 }
  - { offsetInCU: 0x13BE4, offset: 0x13BE4, size: 0x8, addend: 0x0, symName: __ZNSt3__112basic_stringIcNS_11char_traitsIcEENS_9allocatorIcEEEC1B8ue170006Ev, symObjAddr: 0x8C58, symBinAddr: 0x10000B188, symSize: 0x2C }
  - { offsetInCU: 0x13C0E, offset: 0x13C0E, size: 0x8, addend: 0x0, symName: __ZNSt3__112basic_stringIcNS_11char_traitsIcEENS_9allocatorIcEEEC2B8ue170006Ev, symObjAddr: 0x8C84, symBinAddr: 0x10000B1B4, symSize: 0x48 }
  - { offsetInCU: 0x13C38, offset: 0x13C38, size: 0x8, addend: 0x0, symName: __ZNSt3__112basic_stringIcNS_11char_traitsIcEENS_9allocatorIcEEE14__default_initB8ue170006Ev, symObjAddr: 0x8CCC, symBinAddr: 0x10000B1FC, symSize: 0x40 }
...
